(lp0
(lp1
S'5:5'
p2
aI5
aI5
aI0
aF0.0007750988006591797
aa(lp3
S'5:6'
p4
aI5
aI6
aI0
aF0.0005249977111816406
aa(lp5
S'5:7'
p6
aI5
aI7
aI0
aF0.0005199909210205078
aa(lp7
S'5:8'
p8
aI5
aI8
aI0
aF0.00046706199645996094
aa(lp9
S'5:9'
p10
aI5
aI9
aI0
aF0.00047898292541503906
aa(lp11
S'5:10'
p12
aI5
aI10
aI0
aI-1
aa(lp13
S'5:11'
p14
aI5
aI11
aI0
aI-1
aa(lp15
S'5:12'
p16
aI5
aI12
aI0
aI-1
aa(lp17
S'5:13'
p18
aI5
aI13
aI0
aI-1
aa(lp19
S'5:14'
p20
aI5
aI14
aI0
aI-1
aa(lp21
S'5:15'
p22
aI5
aI15
aI0
aI-1
aa(lp23
S'5:16'
p24
aI5
aI16
aI0
aI-1
aa(lp25
S'5:17'
p26
aI5
aI17
aI0
aI-1
aa(lp27
S'5:18'
p28
aI5
aI18
aI0
aI-1
aa(lp29
S'5:19'
p30
aI5
aI19
aI0
aI-1
aa(lp31
S'5:20'
p32
aI5
aI20
aI0
aI-1
aa(lp33
S'5:21'
p34
aI5
aI21
aI0
aI-1
aa(lp35
S'5:22'
p36
aI5
aI22
aI0
aI-1
aa(lp37
S'5:23'
p38
aI5
aI23
aI0
aI-1
aa(lp39
S'5:24'
p40
aI5
aI24
aI0
aI-1
aa(lp41
S'6:5'
p42
aI6
aI5
aI0
aI-1
aa(lp43
S'6:6'
p44
aI6
aI6
aI0
aF0.0006639957427978516
aa(lp45
S'6:7'
p46
aI6
aI7
aI0
aF0.0007340908050537109
aa(lp47
S'6:8'
p48
aI6
aI8
aI0
aF0.0006480216979980469
aa(lp49
S'6:9'
p50
aI6
aI9
aI0
aF0.0008139610290527344
aa(lp51
S'6:10'
p52
aI6
aI10
aI0
aF0.0007598400115966797
aa(lp53
S'6:11'
p54
aI6
aI11
aI0
aF0.0007929801940917969
aa(lp55
S'6:12'
p56
aI6
aI12
aI0
aF0.0007021427154541016
aa(lp57
S'6:13'
p58
aI6
aI13
aI0
aF0.0007081031799316406
aa(lp59
S'6:14'
p60
aI6
aI14
aI0
aF0.0007250308990478516
aa(lp61
S'6:15'
p62
aI6
aI15
aI0
aI-1
aa(lp63
S'6:16'
p64
aI6
aI16
aI0
aI-1
aa(lp65
S'6:17'
p66
aI6
aI17
aI0
aI-1
aa(lp67
S'6:18'
p68
aI6
aI18
aI0
aI-1
aa(lp69
S'6:19'
p70
aI6
aI19
aI0
aI-1
aa(lp71
S'6:20'
p72
aI6
aI20
aI0
aI-1
aa(lp73
S'6:21'
p74
aI6
aI21
aI0
aI-1
aa(lp75
S'6:22'
p76
aI6
aI22
aI0
aI-1
aa(lp77
S'6:23'
p78
aI6
aI23
aI0
aI-1
aa(lp79
S'6:24'
p80
aI6
aI24
aI0
aI-1
aa(lp81
S'6:25'
p82
aI6
aI25
aI0
aI-1
aa(lp83
S'6:26'
p84
aI6
aI26
aI0
aI-1
aa(lp85
S'6:27'
p86
aI6
aI27
aI0
aI-1
aa(lp87
S'6:28'
p88
aI6
aI28
aI0
aI-1
aa(lp89
S'6:29'
p90
aI6
aI29
aI0
aI-1
aa(lp91
S'6:5'
p92
aI6
aI5
aI0
aF0.0006768703460693359
aa(lp93
S'6:6'
p94
aI6
aI6
aI0
aF0.0007119178771972656
aa(lp95
S'6:7'
p96
aI6
aI7
aI0
aF0.0007560253143310547
aa(lp97
S'6:8'
p98
aI6
aI8
aI0
aF0.0006489753723144531
aa(lp99
S'6:9'
p100
aI6
aI9
aI0
aF0.0007178783416748047
aa(lp101
S'6:10'
p102
aI6
aI10
aI0
aF0.0006608963012695312
aa(lp103
S'6:11'
p104
aI6
aI11
aI0
aF0.0007061958312988281
aa(lp105
S'6:12'
p106
aI6
aI12
aI0
aF0.0007770061492919922
aa(lp107
S'6:13'
p108
aI6
aI13
aI0
aF0.0006959438323974609
aa(lp109
S'6:14'
p110
aI6
aI14
aI0
aF0.0007259845733642578
aa(lp111
S'6:15'
p112
aI6
aI15
aI0
aF0.0008130073547363281
aa(lp113
S'6:16'
p114
aI6
aI16
aI0
aI-1
aa(lp115
S'6:17'
p116
aI6
aI17
aI0
aI-1
aa(lp117
S'6:18'
p118
aI6
aI18
aI0
aI-1
aa(lp119
S'6:19'
p120
aI6
aI19
aI0
aI-1
aa(lp121
S'6:20'
p122
aI6
aI20
aI0
aI-1
aa(lp123
S'6:21'
p124
aI6
aI21
aI0
aI-1
aa(lp125
S'6:22'
p126
aI6
aI22
aI0
aI-1
aa(lp127
S'6:23'
p128
aI6
aI23
aI0
aI-1
aa(lp129
S'6:24'
p130
aI6
aI24
aI0
aI-1
aa(lp131
S'6:25'
p132
aI6
aI25
aI0
aI-1
aa(lp133
S'6:26'
p134
aI6
aI26
aI0
aI-1
aa(lp135
S'6:27'
p136
aI6
aI27
aI0
aI-1
aa(lp137
S'6:28'
p138
aI6
aI28
aI0
aI-1
aa(lp139
S'6:29'
p140
aI6
aI29
aI0
aI-1
aa(lp141
S'7:5'
p142
aI7
aI5
aI0
aI-1
aa(lp143
S'7:6'
p144
aI7
aI6
aI0
aF0.0008308887481689453
aa(lp145
S'7:7'
p146
aI7
aI7
aI0
aF0.0008368492126464844
aa(lp147
S'7:8'
p148
aI7
aI8
aI0
aF0.0006799697875976562
aa(lp149
S'7:9'
p150
aI7
aI9
aI0
aF0.0008251667022705078
aa(lp151
S'7:10'
p152
aI7
aI10
aI0
aF0.0009860992431640625
aa(lp153
S'7:11'
p154
aI7
aI11
aI0
aF0.0009748935699462891
aa(lp155
S'7:12'
p156
aI7
aI12
aI0
aF0.0010502338409423828
aa(lp157
S'7:13'
p158
aI7
aI13
aI0
aF0.0009648799896240234
aa(lp159
S'7:14'
p160
aI7
aI14
aI0
aF0.001194000244140625
aa(lp161
S'7:15'
p162
aI7
aI15
aI0
aF0.0010979175567626953
aa(lp163
S'7:16'
p164
aI7
aI16
aI0
aF0.0010800361633300781
aa(lp165
S'7:17'
p166
aI7
aI17
aI0
aF0.001132965087890625
aa(lp167
S'7:18'
p168
aI7
aI18
aI0
aF0.0011029243469238281
aa(lp169
S'7:19'
p170
aI7
aI19
aI0
aF0.0011668205261230469
aa(lp171
S'7:20'
p172
aI7
aI20
aI0
aF0.0012359619140625
aa(lp173
S'7:21'
p174
aI7
aI21
aI0
aI-1
aa(lp175
S'7:22'
p176
aI7
aI22
aI0
aF0.0012640953063964844
aa(lp177
S'7:23'
p178
aI7
aI23
aI0
aI-1
aa(lp179
S'7:24'
p180
aI7
aI24
aI0
aI-1
aa(lp181
S'7:25'
p182
aI7
aI25
aI0
aI-1
aa(lp183
S'7:26'
p184
aI7
aI26
aI0
aI-1
aa(lp185
S'7:27'
p186
aI7
aI27
aI0
aI-1
aa(lp187
S'7:28'
p188
aI7
aI28
aI0
aI-1
aa(lp189
S'7:29'
p190
aI7
aI29
aI0
aI-1
aa(lp191
S'7:30'
p192
aI7
aI30
aI0
aI-1
aa(lp193
S'7:31'
p194
aI7
aI31
aI0
aI-1
aa(lp195
S'7:32'
p196
aI7
aI32
aI0
aI-1
aa(lp197
S'7:33'
p198
aI7
aI33
aI0
aI-1
aa(lp199
S'7:34'
p200
aI7
aI34
aI0
aI-1
aa(lp201
S'7:5'
p202
aI7
aI5
aI0
aI-1
aa(lp203
S'7:6'
p204
aI7
aI6
aI0
aF0.0006809234619140625
aa(lp205
S'7:7'
p206
aI7
aI7
aI0
aF0.0006909370422363281
aa(lp207
S'7:8'
p208
aI7
aI8
aI0
aF0.0007619857788085938
aa(lp209
S'7:9'
p210
aI7
aI9
aI0
aF0.0010018348693847656
aa(lp211
S'7:10'
p212
aI7
aI10
aI0
aF0.0010459423065185547
aa(lp213
S'7:11'
p214
aI7
aI11
aI0
aF0.0009458065032958984
aa(lp215
S'7:12'
p216
aI7
aI12
aI0
aF0.0009629726409912109
aa(lp217
S'7:13'
p218
aI7
aI13
aI0
aF0.0011148452758789062
aa(lp219
S'7:14'
p220
aI7
aI14
aI0
aF0.0009958744049072266
aa(lp221
S'7:15'
p222
aI7
aI15
aI0
aF0.0009918212890625
aa(lp223
S'7:16'
p224
aI7
aI16
aI0
aF0.00102996826171875
aa(lp225
S'7:17'
p226
aI7
aI17
aI0
aF0.0011420249938964844
aa(lp227
S'7:18'
p228
aI7
aI18
aI0
aF0.0013298988342285156
aa(lp229
S'7:19'
p230
aI7
aI19
aI0
aF0.001363992691040039
aa(lp231
S'7:20'
p232
aI7
aI20
aI0
aI-1
aa(lp233
S'7:21'
p234
aI7
aI21
aI0
aI-1
aa(lp235
S'7:22'
p236
aI7
aI22
aI0
aI-1
aa(lp237
S'7:23'
p238
aI7
aI23
aI0
aI-1
aa(lp239
S'7:24'
p240
aI7
aI24
aI0
aI-1
aa(lp241
S'7:25'
p242
aI7
aI25
aI0
aI-1
aa(lp243
S'7:26'
p244
aI7
aI26
aI0
aI-1
aa(lp245
S'7:27'
p246
aI7
aI27
aI0
aI-1
aa(lp247
S'7:28'
p248
aI7
aI28
aI0
aI-1
aa(lp249
S'7:29'
p250
aI7
aI29
aI0
aI-1
aa(lp251
S'7:30'
p252
aI7
aI30
aI0
aI-1
aa(lp253
S'7:31'
p254
aI7
aI31
aI0
aI-1
aa(lp255
S'7:32'
p256
aI7
aI32
aI0
aI-1
aa(lp257
S'7:33'
p258
aI7
aI33
aI0
aI-1
aa(lp259
S'7:34'
p260
aI7
aI34
aI0
aI-1
aa(lp261
S'8:5'
p262
aI8
aI5
aI0
aI-1
aa(lp263
S'8:6'
p264
aI8
aI6
aI0
aF0.0008959770202636719
aa(lp265
S'8:7'
p266
aI8
aI7
aI0
aF0.0008158683776855469
aa(lp267
S'8:8'
p268
aI8
aI8
aI0
aF0.0007259845733642578
aa(lp269
S'8:9'
p270
aI8
aI9
aI0
aF0.0011990070343017578
aa(lp271
S'8:10'
p272
aI8
aI10
aI0
aF0.0012629032135009766
aa(lp273
S'8:11'
p274
aI8
aI11
aI0
aF0.0010440349578857422
aa(lp275
S'8:12'
p276
aI8
aI12
aI0
aF0.0010781288146972656
aa(lp277
S'8:13'
p278
aI8
aI13
aI0
aF0.0011639595031738281
aa(lp279
S'8:14'
p280
aI8
aI14
aI0
aF0.0012869834899902344
aa(lp281
S'8:15'
p282
aI8
aI15
aI0
aF0.0011990070343017578
aa(lp283
S'8:16'
p284
aI8
aI16
aI0
aF0.001199960708618164
aa(lp285
S'8:17'
p286
aI8
aI17
aI0
aF0.0012390613555908203
aa(lp287
S'8:18'
p288
aI8
aI18
aI0
aF0.0014522075653076172
aa(lp289
S'8:19'
p290
aI8
aI19
aI0
aF0.0012700557708740234
aa(lp291
S'8:20'
p292
aI8
aI20
aI0
aF0.0014319419860839844
aa(lp293
S'8:21'
p294
aI8
aI21
aI0
aF0.0015599727630615234
aa(lp295
S'8:22'
p296
aI8
aI22
aI0
aF0.0015430450439453125
aa(lp297
S'8:23'
p298
aI8
aI23
aI0
aF0.0015969276428222656
aa(lp299
S'8:24'
p300
aI8
aI24
aI0
aF0.001603841781616211
aa(lp301
S'8:25'
p302
aI8
aI25
aI0
aF0.0014660358428955078
aa(lp303
S'8:26'
p304
aI8
aI26
aI0
aI-1
aa(lp305
S'8:27'
p306
aI8
aI27
aI0
aF0.0017349720001220703
aa(lp307
S'8:28'
p308
aI8
aI28
aI0
aI-1
aa(lp309
S'8:29'
p310
aI8
aI29
aI0
aF0.0017611980438232422
aa(lp311
S'8:30'
p312
aI8
aI30
aI0
aI-1
aa(lp313
S'8:31'
p314
aI8
aI31
aI0
aI-1
aa(lp315
S'8:32'
p316
aI8
aI32
aI0
aI-1
aa(lp317
S'8:33'
p318
aI8
aI33
aI0
aI-1
aa(lp319
S'8:34'
p320
aI8
aI34
aI0
aI-1
aa(lp321
S'8:35'
p322
aI8
aI35
aI0
aI-1
aa(lp323
S'8:36'
p324
aI8
aI36
aI0
aI-1
aa(lp325
S'8:37'
p326
aI8
aI37
aI0
aI-1
aa(lp327
S'8:38'
p328
aI8
aI38
aI0
aI-1
aa(lp329
S'8:39'
p330
aI8
aI39
aI0
aI-1
aa(lp331
S'8:5'
p332
aI8
aI5
aI0
aI-1
aa(lp333
S'8:6'
p334
aI8
aI6
aI0
aI-1
aa(lp335
S'8:7'
p336
aI8
aI7
aI0
aF0.0006940364837646484
aa(lp337
S'8:8'
p338
aI8
aI8
aI0
aF0.001302957534790039
aa(lp339
S'8:9'
p340
aI8
aI9
aI0
aF0.0012400150299072266
aa(lp341
S'8:10'
p342
aI8
aI10
aI0
aF0.0011208057403564453
aa(lp343
S'8:11'
p344
aI8
aI11
aI0
aF0.001210927963256836
aa(lp345
S'8:12'
p346
aI8
aI12
aI0
aF0.0013301372528076172
aa(lp347
S'8:13'
p348
aI8
aI13
aI0
aF0.0013480186462402344
aa(lp349
S'8:14'
p350
aI8
aI14
aI0
aF0.0011022090911865234
aa(lp351
S'8:15'
p352
aI8
aI15
aI0
aF0.0013949871063232422
aa(lp353
S'8:16'
p354
aI8
aI16
aI0
aF0.001232147216796875
aa(lp355
S'8:17'
p356
aI8
aI17
aI0
aF0.0014150142669677734
aa(lp357
S'8:18'
p358
aI8
aI18
aI0
aF0.0015399456024169922
aa(lp359
S'8:19'
p360
aI8
aI19
aI0
aF0.0013890266418457031
aa(lp361
S'8:20'
p362
aI8
aI20
aI0
aF0.0013811588287353516
aa(lp363
S'8:21'
p364
aI8
aI21
aI0
aF0.0014319419860839844
aa(lp365
S'8:22'
p366
aI8
aI22
aI0
aF0.0013890266418457031
aa(lp367
S'8:23'
p368
aI8
aI23
aI0
aF0.0016188621520996094
aa(lp369
S'8:24'
p370
aI8
aI24
aI0
aF0.0016269683837890625
aa(lp371
S'8:25'
p372
aI8
aI25
aI0
aF0.0019450187683105469
aa(lp373
S'8:26'
p374
aI8
aI26
aI0
aI-1
aa(lp375
S'8:27'
p376
aI8
aI27
aI0
aI-1
aa(lp377
S'8:28'
p378
aI8
aI28
aI0
aI-1
aa(lp379
S'8:29'
p380
aI8
aI29
aI0
aF0.0019228458404541016
aa(lp381
S'8:30'
p382
aI8
aI30
aI0
aI-1
aa(lp383
S'8:31'
p384
aI8
aI31
aI0
aI-1
aa(lp385
S'8:32'
p386
aI8
aI32
aI0
aI-1
aa(lp387
S'8:33'
p388
aI8
aI33
aI0
aI-1
aa(lp389
S'8:34'
p390
aI8
aI34
aI0
aI-1
aa(lp391
S'8:35'
p392
aI8
aI35
aI0
aI-1
aa(lp393
S'8:36'
p394
aI8
aI36
aI0
aI-1
aa(lp395
S'8:37'
p396
aI8
aI37
aI0
aI-1
aa(lp397
S'8:38'
p398
aI8
aI38
aI0
aI-1
aa(lp399
S'8:39'
p400
aI8
aI39
aI0
aI-1
aa(lp401
S'9:5'
p402
aI9
aI5
aI0
aI-1
aa(lp403
S'9:6'
p404
aI9
aI6
aI0
aI-1
aa(lp405
S'9:7'
p406
aI9
aI7
aI0
aF0.0008208751678466797
aa(lp407
S'9:8'
p408
aI9
aI8
aI0
aF0.0011548995971679688
aa(lp409
S'9:9'
p410
aI9
aI9
aI0
aF0.001435995101928711
aa(lp411
S'9:10'
p412
aI9
aI10
aI0
aF0.0013339519500732422
aa(lp413
S'9:11'
p414
aI9
aI11
aI0
aF0.0016570091247558594
aa(lp415
S'9:12'
p416
aI9
aI12
aI0
aF0.0014088153839111328
aa(lp417
S'9:13'
p418
aI9
aI13
aI0
aF0.0017418861389160156
aa(lp419
S'9:14'
p420
aI9
aI14
aI0
aF0.0017199516296386719
aa(lp421
S'9:15'
p422
aI9
aI15
aI0
aF0.0015702247619628906
aa(lp423
S'9:16'
p424
aI9
aI16
aI0
aF0.0016319751739501953
aa(lp425
S'9:17'
p426
aI9
aI17
aI0
aF0.0017321109771728516
aa(lp427
S'9:18'
p428
aI9
aI18
aI0
aF0.0015490055084228516
aa(lp429
S'9:19'
p430
aI9
aI19
aI0
aF0.0015821456909179688
aa(lp431
S'9:20'
p432
aI9
aI20
aI0
aF0.0015730857849121094
aa(lp433
S'9:21'
p434
aI9
aI21
aI0
aF0.001766204833984375
aa(lp435
S'9:22'
p436
aI9
aI22
aI0
aF0.001714944839477539
aa(lp437
S'9:23'
p438
aI9
aI23
aI0
aF0.0016529560089111328
aa(lp439
S'9:24'
p440
aI9
aI24
aI0
aF0.0018739700317382812
aa(lp441
S'9:25'
p442
aI9
aI25
aI0
aF0.0020608901977539062
aa(lp443
S'9:26'
p444
aI9
aI26
aI0
aF0.001964092254638672
aa(lp445
S'9:27'
p446
aI9
aI27
aI0
aF0.0017540454864501953
aa(lp447
S'9:28'
p448
aI9
aI28
aI0
aF0.0017940998077392578
aa(lp449
S'9:29'
p450
aI9
aI29
aI0
aF0.001981973648071289
aa(lp451
S'9:30'
p452
aI9
aI30
aI0
aI-1
aa(lp453
S'9:31'
p454
aI9
aI31
aI0
aI-1
aa(lp455
S'9:32'
p456
aI9
aI32
aI0
aI-1
aa(lp457
S'9:33'
p458
aI9
aI33
aI0
aF0.002331972122192383
aa(lp459
S'9:34'
p460
aI9
aI34
aI0
aI-1
aa(lp461
S'9:35'
p462
aI9
aI35
aI0
aF0.0023148059844970703
aa(lp463
S'9:36'
p464
aI9
aI36
aI0
aI-1
aa(lp465
S'9:37'
p466
aI9
aI37
aI0
aF0.0022039413452148438
aa(lp467
S'9:38'
p468
aI9
aI38
aI0
aI-1
aa(lp469
S'9:39'
p470
aI9
aI39
aI0
aI-1
aa(lp471
S'9:40'
p472
aI9
aI40
aI0
aI-1
aa(lp473
S'9:41'
p474
aI9
aI41
aI0
aI-1
aa(lp475
S'9:42'
p476
aI9
aI42
aI0
aI-1
aa(lp477
S'9:43'
p478
aI9
aI43
aI0
aI-1
aa(lp479
S'9:44'
p480
aI9
aI44
aI0
aI-1
aa(lp481
S'10:5'
p482
aI10
aI5
aI0
aI-1
aa(lp483
S'10:6'
p484
aI10
aI6
aI0
aI-1
aa(lp485
S'10:7'
p486
aI10
aI7
aI0
aI-1
aa(lp487
S'10:8'
p488
aI10
aI8
aI0
aF0.0009741783142089844
aa(lp489
S'10:9'
p490
aI10
aI9
aI0
aF0.0014700889587402344
aa(lp491
S'10:10'
p492
aI10
aI10
aI0
aF0.0013091564178466797
aa(lp493
S'10:11'
p494
aI10
aI11
aI0
aF0.001722097396850586
aa(lp495
S'10:12'
p496
aI10
aI12
aI0
aF0.0020580291748046875
aa(lp497
S'10:13'
p498
aI10
aI13
aI0
aF0.0017480850219726562
aa(lp499
S'10:14'
p500
aI10
aI14
aI0
aF0.0021080970764160156
aa(lp501
S'10:15'
p502
aI10
aI15
aI0
aF0.0020248889923095703
aa(lp503
S'10:16'
p504
aI10
aI16
aI0
aF0.0017960071563720703
aa(lp505
S'10:17'
p506
aI10
aI17
aI0
aF0.001817941665649414
aa(lp507
S'10:18'
p508
aI10
aI18
aI0
aF0.0021660327911376953
aa(lp509
S'10:19'
p510
aI10
aI19
aI0
aF0.0018389225006103516
aa(lp511
S'10:20'
p512
aI10
aI20
aI0
aF0.0018489360809326172
aa(lp513
S'10:21'
p514
aI10
aI21
aI0
aF0.0020859241485595703
aa(lp515
S'10:22'
p516
aI10
aI22
aI0
aF0.0020380020141601562
aa(lp517
S'10:23'
p518
aI10
aI23
aI0
aF0.002012014389038086
aa(lp519
S'10:24'
p520
aI10
aI24
aI0
aF0.0020630359649658203
aa(lp521
S'10:25'
p522
aI10
aI25
aI0
aF0.002026796340942383
aa(lp523
S'10:26'
p524
aI10
aI26
aI0
aF0.0021889209747314453
aa(lp525
S'10:27'
p526
aI10
aI27
aI0
aF0.0022389888763427734
aa(lp527
S'10:28'
p528
aI10
aI28
aI0
aF0.002022981643676758
aa(lp529
S'10:29'
p530
aI10
aI29
aI0
aF0.0022661685943603516
aa(lp531
S'10:30'
p532
aI10
aI30
aI0
aF0.0023839473724365234
aa(lp533
S'10:31'
p534
aI10
aI31
aI0
aF0.0022089481353759766
aa(lp535
S'10:32'
p536
aI10
aI32
aI0
aF0.002229928970336914
aa(lp537
S'10:33'
p538
aI10
aI33
aI0
aF0.0024008750915527344
aa(lp539
S'10:34'
p540
aI10
aI34
aI0
aF0.0027060508728027344
aa(lp541
S'10:35'
p542
aI10
aI35
aI0
aF0.002683877944946289
aa(lp543
S'10:36'
p544
aI10
aI36
aI0
aF0.002624988555908203
aa(lp545
S'10:37'
p546
aI10
aI37
aI0
aI-1
aa(lp547
S'10:38'
p548
aI10
aI38
aI0
aF0.0026350021362304688
aa(lp549
S'10:39'
p550
aI10
aI39
aI0
aI-1
aa(lp551
S'10:40'
p552
aI10
aI40
aI0
aF0.0026400089263916016
aa(lp553
S'10:41'
p554
aI10
aI41
aI0
aI-1
aa(lp555
S'10:42'
p556
aI10
aI42
aI0
aI-1
aa(lp557
S'10:43'
p558
aI10
aI43
aI0
aI-1
aa(lp559
S'10:44'
p560
aI10
aI44
aI0
aF0.002869129180908203
aa(lp561
S'10:45'
p562
aI10
aI45
aI0
aI-1
aa(lp563
S'10:46'
p564
aI10
aI46
aI0
aI-1
aa(lp565
S'10:47'
p566
aI10
aI47
aI0
aI-1
aa(lp567
S'10:48'
p568
aI10
aI48
aI0
aI-1
aa(lp569
S'10:49'
p570
aI10
aI49
aI0
aI-1
aa(lp571
S'11:5'
p572
aI11
aI5
aI0
aI-1
aa(lp573
S'11:6'
p574
aI11
aI6
aI0
aI-1
aa(lp575
S'11:7'
p576
aI11
aI7
aI0
aI-1
aa(lp577
S'11:8'
p578
aI11
aI8
aI0
aI-1
aa(lp579
S'11:9'
p580
aI11
aI9
aI0
aF0.001310110092163086
aa(lp581
S'11:10'
p582
aI11
aI10
aI0
aF0.0015430450439453125
aa(lp583
S'11:11'
p584
aI11
aI11
aI0
aF0.0017249584197998047
aa(lp585
S'11:12'
p586
aI11
aI12
aI0
aF0.0018160343170166016
aa(lp587
S'11:13'
p588
aI11
aI13
aI0
aF0.0019621849060058594
aa(lp589
S'11:14'
p590
aI11
aI14
aI0
aF0.001990079879760742
aa(lp591
S'11:15'
p592
aI11
aI15
aI0
aF0.0023040771484375
aa(lp593
S'11:16'
p594
aI11
aI16
aI0
aF0.002640962600708008
aa(lp595
S'11:17'
p596
aI11
aI17
aI0
aF0.002022981643676758
aa(lp597
S'11:18'
p598
aI11
aI18
aI0
aF0.0025250911712646484
aa(lp599
S'11:19'
p600
aI11
aI19
aI0
aF0.002115011215209961
aa(lp601
S'11:20'
p602
aI11
aI20
aI0
aF0.002633810043334961
aa(lp603
S'11:21'
p604
aI11
aI21
aI0
aF0.0021529197692871094
aa(lp605
S'11:22'
p606
aI11
aI22
aI0
aF0.0024940967559814453
aa(lp607
S'11:23'
p608
aI11
aI23
aI0
aF0.0026140213012695312
aa(lp609
S'11:24'
p610
aI11
aI24
aI0
aF0.0022139549255371094
aa(lp611
S'11:25'
p612
aI11
aI25
aI0
aF0.0022628307342529297
aa(lp613
S'11:26'
p614
aI11
aI26
aI0
aF0.002332925796508789
aa(lp615
S'11:27'
p616
aI11
aI27
aI0
aF0.0023238658905029297
aa(lp617
S'11:28'
p618
aI11
aI28
aI0
aF0.002688169479370117
aa(lp619
S'11:29'
p620
aI11
aI29
aI0
aF0.0024259090423583984
aa(lp621
S'11:30'
p622
aI11
aI30
aI0
aF0.0025420188903808594
aa(lp623
S'11:31'
p624
aI11
aI31
aI0
aF0.002711057662963867
aa(lp625
S'11:32'
p626
aI11
aI32
aI0
aF0.0025091171264648438
aa(lp627
S'11:33'
p628
aI11
aI33
aI0
aF0.002741098403930664
aa(lp629
S'11:34'
p630
aI11
aI34
aI0
aF0.0030181407928466797
aa(lp631
S'11:35'
p632
aI11
aI35
aI0
aF0.003362894058227539
aa(lp633
S'11:36'
p634
aI11
aI36
aI0
aF0.002841949462890625
aa(lp635
S'11:37'
p636
aI11
aI37
aI0
aF0.0029518604278564453
aa(lp637
S'11:38'
p638
aI11
aI38
aI0
aF0.002995014190673828
aa(lp639
S'11:39'
p640
aI11
aI39
aI0
aF0.003010988235473633
aa(lp641
S'11:40'
p642
aI11
aI40
aI0
aF0.0031769275665283203
aa(lp643
S'11:41'
p644
aI11
aI41
aI0
aF0.0033538341522216797
aa(lp645
S'11:42'
p646
aI11
aI42
aI0
aF0.003741025924682617
aa(lp647
S'11:43'
p648
aI11
aI43
aI0
aF0.0034618377685546875
aa(lp649
S'11:44'
p650
aI11
aI44
aI0
aF0.003362894058227539
aa(lp651
S'11:45'
p652
aI11
aI45
aI0
aI-1
aa(lp653
S'11:46'
p654
aI11
aI46
aI0
aI-1
aa(lp655
S'11:47'
p656
aI11
aI47
aI0
aF0.00397801399230957
aa(lp657
S'11:48'
p658
aI11
aI48
aI0
aF0.003996133804321289
aa(lp659
S'11:49'
p660
aI11
aI49
aI0
aI-1
aa(lp661
S'11:50'
p662
aI11
aI50
aI0
aI-1
aa(lp663
S'11:51'
p664
aI11
aI51
aI0
aI-1
aa(lp665
S'11:52'
p666
aI11
aI52
aI0
aI-1
aa(lp667
S'11:53'
p668
aI11
aI53
aI0
aI-1
aa(lp669
S'11:54'
p670
aI11
aI54
aI0
aI-1
aa(lp671
S'12:5'
p672
aI12
aI5
aI0
aI-1
aa(lp673
S'12:6'
p674
aI12
aI6
aI0
aI-1
aa(lp675
S'12:7'
p676
aI12
aI7
aI0
aI-1
aa(lp677
S'12:8'
p678
aI12
aI8
aI0
aI-1
aa(lp679
S'12:9'
p680
aI12
aI9
aI0
aF0.001416921615600586
aa(lp681
S'12:10'
p682
aI12
aI10
aI0
aF0.0014181137084960938
aa(lp683
S'12:11'
p684
aI12
aI11
aI0
aF0.0020101070404052734
aa(lp685
S'12:12'
p686
aI12
aI12
aI0
aF0.0020389556884765625
aa(lp687
S'12:13'
p688
aI12
aI13
aI0
aF0.002527952194213867
aa(lp689
S'12:14'
p690
aI12
aI14
aI0
aF0.0026750564575195312
aa(lp691
S'12:15'
p692
aI12
aI15
aI0
aF0.0022470951080322266
aa(lp693
S'12:16'
p694
aI12
aI16
aI0
aF0.002370119094848633
aa(lp695
S'12:17'
p696
aI12
aI17
aI0
aF0.002299070358276367
aa(lp697
S'12:18'
p698
aI12
aI18
aI0
aF0.0023229122161865234
aa(lp699
S'12:19'
p700
aI12
aI19
aI0
aF0.003010988235473633
aa(lp701
S'12:20'
p702
aI12
aI20
aI0
aF0.002824068069458008
aa(lp703
S'12:21'
p704
aI12
aI21
aI0
aF0.0031180381774902344
aa(lp705
S'12:22'
p706
aI12
aI22
aI0
aF0.002959012985229492
aa(lp707
S'12:23'
p708
aI12
aI23
aI0
aF0.0025548934936523438
aa(lp709
S'12:24'
p710
aI12
aI24
aI0
aF0.0023970603942871094
aa(lp711
S'12:25'
p712
aI12
aI25
aI0
aF0.0027740001678466797
aa(lp713
S'12:26'
p714
aI12
aI26
aI0
aF0.0027239322662353516
aa(lp715
S'12:27'
p716
aI12
aI27
aI0
aF0.002527952194213867
aa(lp717
S'12:28'
p718
aI12
aI28
aI0
aF0.0028409957885742188
aa(lp719
S'12:29'
p720
aI12
aI29
aI0
aF0.0027971267700195312
aa(lp721
S'12:30'
p722
aI12
aI30
aI0
aF0.0027468204498291016
aa(lp723
S'12:31'
p724
aI12
aI31
aI0
aF0.003482818603515625
aa(lp725
S'12:32'
p726
aI12
aI32
aI0
aF0.0031380653381347656
aa(lp727
S'12:33'
p728
aI12
aI33
aI0
aF0.0030400753021240234
aa(lp729
S'12:34'
p730
aI12
aI34
aI0
aF0.002947092056274414
aa(lp731
S'12:35'
p732
aI12
aI35
aI0
aF0.003141164779663086
aa(lp733
S'12:36'
p734
aI12
aI36
aI0
aF0.003081083297729492
aa(lp735
S'12:37'
p736
aI12
aI37
aI0
aF0.0030319690704345703
aa(lp737
S'12:38'
p738
aI12
aI38
aI0
aF0.0030760765075683594
aa(lp739
S'12:39'
p740
aI12
aI39
aI0
aF0.0033190250396728516
aa(lp741
S'12:40'
p742
aI12
aI40
aI0
aF0.0033190250396728516
aa(lp743
S'12:41'
p744
aI12
aI41
aI0
aF0.004029035568237305
aa(lp745
S'12:42'
p746
aI12
aI42
aI0
aF0.003843069076538086
aa(lp747
S'12:43'
p748
aI12
aI43
aI0
aF0.003921985626220703
aa(lp749
S'12:44'
p750
aI12
aI44
aI0
aF0.0035109519958496094
aa(lp751
S'12:45'
p752
aI12
aI45
aI0
aF0.003648996353149414
aa(lp753
S'12:46'
p754
aI12
aI46
aI0
aF0.0036020278930664062
aa(lp755
S'12:47'
p756
aI12
aI47
aI0
aF0.003679990768432617
aa(lp757
S'12:48'
p758
aI12
aI48
aI0
aI-1
aa(lp759
S'12:49'
p760
aI12
aI49
aI0
aF0.004420042037963867
aa(lp761
S'12:50'
p762
aI12
aI50
aI0
aI-1
aa(lp763
S'12:51'
p764
aI12
aI51
aI0
aF0.0041790008544921875
aa(lp765
S'12:52'
p766
aI12
aI52
aI0
aF0.004637002944946289
aa(lp767
S'12:53'
p768
aI12
aI53
aI0
aF0.004392147064208984
aa(lp769
S'12:54'
p770
aI12
aI54
aI0
aF0.004635810852050781
aa(lp771
S'12:55'
p772
aI12
aI55
aI0
aI-1
aa(lp773
S'12:56'
p774
aI12
aI56
aI0
aI-1
aa(lp775
S'12:57'
p776
aI12
aI57
aI0
aI-1
aa(lp777
S'12:58'
p778
aI12
aI58
aI0
aI-1
aa(lp779
S'12:59'
p780
aI12
aI59
aI0
aI-1
aa(lp781
S'13:5'
p782
aI13
aI5
aI0
aI-1
aa(lp783
S'13:6'
p784
aI13
aI6
aI0
aI-1
aa(lp785
S'13:7'
p786
aI13
aI7
aI0
aI-1
aa(lp787
S'13:8'
p788
aI13
aI8
aI0
aI-1
aa(lp789
S'13:9'
p790
aI13
aI9
aI0
aI-1
aa(lp791
S'13:10'
p792
aI13
aI10
aI0
aF0.0015518665313720703
aa(lp793
S'13:11'
p794
aI13
aI11
aI0
aF0.0017771720886230469
aa(lp795
S'13:12'
p796
aI13
aI12
aI0
aF0.002351999282836914
aa(lp797
S'13:13'
p798
aI13
aI13
aI0
aF0.003017902374267578
aa(lp799
S'13:14'
p800
aI13
aI14
aI0
aF0.002936840057373047
aa(lp801
S'13:15'
p802
aI13
aI15
aI0
aF0.002585887908935547
aa(lp803
S'13:16'
p804
aI13
aI16
aI0
aF0.003609895706176758
aa(lp805
S'13:17'
p806
aI13
aI17
aI0
aF0.0030689239501953125
aa(lp807
S'13:18'
p808
aI13
aI18
aI0
aF0.0034999847412109375
aa(lp809
S'13:19'
p810
aI13
aI19
aI0
aF0.0030159950256347656
aa(lp811
S'13:20'
p812
aI13
aI20
aI0
aF0.0028839111328125
aa(lp813
S'13:21'
p814
aI13
aI21
aI0
aF0.0037109851837158203
aa(lp815
S'13:22'
p816
aI13
aI22
aI0
aF0.0027151107788085938
aa(lp817
S'13:23'
p818
aI13
aI23
aI0
aF0.0031740665435791016
aa(lp819
S'13:24'
p820
aI13
aI24
aI0
aF0.0035130977630615234
aa(lp821
S'13:25'
p822
aI13
aI25
aI0
aF0.003098011016845703
aa(lp823
S'13:26'
p824
aI13
aI26
aI0
aF0.003290891647338867
aa(lp825
S'13:27'
p826
aI13
aI27
aI0
aF0.003008127212524414
aa(lp827
S'13:28'
p828
aI13
aI28
aI0
aF0.0030901432037353516
aa(lp829
S'13:29'
p830
aI13
aI29
aI0
aF0.003108978271484375
aa(lp831
S'13:30'
p832
aI13
aI30
aI0
aF0.003390073776245117
aa(lp833
S'13:31'
p834
aI13
aI31
aI0
aF0.003754854202270508
aa(lp835
S'13:32'
p836
aI13
aI32
aI0
aF0.0032761096954345703
aa(lp837
S'13:33'
p838
aI13
aI33
aI0
aF0.0035560131072998047
aa(lp839
S'13:34'
p840
aI13
aI34
aI0
aF0.0037109851837158203
aa(lp841
S'13:35'
p842
aI13
aI35
aI0
aF0.003292083740234375
aa(lp843
S'13:36'
p844
aI13
aI36
aI0
aF0.003571033477783203
aa(lp845
S'13:37'
p846
aI13
aI37
aI0
aF0.0038220882415771484
aa(lp847
S'13:38'
p848
aI13
aI38
aI0
aF0.0035979747772216797
aa(lp849
S'13:39'
p850
aI13
aI39
aI0
aF0.0040628910064697266
aa(lp851
S'13:40'
p852
aI13
aI40
aI0
aF0.003612995147705078
aa(lp853
S'13:41'
p854
aI13
aI41
aI0
aF0.0035469532012939453
aa(lp855
S'13:42'
p856
aI13
aI42
aI0
aF0.0039751529693603516
aa(lp857
S'13:43'
p858
aI13
aI43
aI0
aF0.004216909408569336
aa(lp859
S'13:44'
p860
aI13
aI44
aI0
aF0.004065036773681641
aa(lp861
S'13:45'
p862
aI13
aI45
aI0
aF0.004030942916870117
aa(lp863
S'13:46'
p864
aI13
aI46
aI0
aF0.0046880245208740234
aa(lp865
S'13:47'
p866
aI13
aI47
aI0
aF0.004114866256713867
aa(lp867
S'13:48'
p868
aI13
aI48
aI0
aF0.003997087478637695
aa(lp869
S'13:49'
p870
aI13
aI49
aI0
aF0.004826784133911133
aa(lp871
S'13:50'
p872
aI13
aI50
aI0
aF0.004309892654418945
aa(lp873
S'13:51'
p874
aI13
aI51
aI0
aF0.004559993743896484
aa(lp875
S'13:52'
p876
aI13
aI52
aI0
aF0.004778146743774414
aa(lp877
S'13:53'
p878
aI13
aI53
aI0
aF0.004487037658691406
aa(lp879
S'13:54'
p880
aI13
aI54
aI0
aF0.004678964614868164
aa(lp881
S'13:55'
p882
aI13
aI55
aI0
aF0.004945039749145508
aa(lp883
S'13:56'
p884
aI13
aI56
aI0
aF0.005112171173095703
aa(lp885
S'13:57'
p886
aI13
aI57
aI0
aF0.005568027496337891
aa(lp887
S'13:58'
p888
aI13
aI58
aI0
aF0.004981040954589844
aa(lp889
S'13:59'
p890
aI13
aI59
aI0
aF0.005068063735961914
aa(lp891
S'13:60'
p892
aI13
aI60
aI0
aI-1
aa(lp893
S'13:61'
p894
aI13
aI61
aI0
aF0.00561213493347168
aa(lp895
S'13:62'
p896
aI13
aI62
aI0
aI-1
aa(lp897
S'13:63'
p898
aI13
aI63
aI0
aF0.0052988529205322266
aa(lp899
S'13:64'
p900
aI13
aI64
aI0
aF0.005814075469970703
aa(lp901
S'14:5'
p902
aI14
aI5
aI0
aI-1
aa(lp903
S'14:6'
p904
aI14
aI6
aI0
aI-1
aa(lp905
S'14:7'
p906
aI14
aI7
aI0
aI-1
aa(lp907
S'14:8'
p908
aI14
aI8
aI0
aI-1
aa(lp909
S'14:9'
p910
aI14
aI9
aI0
aI-1
aa(lp911
S'14:10'
p912
aI14
aI10
aI0
aI-1
aa(lp913
S'14:11'
p914
aI14
aI11
aI0
aF0.0021131038665771484
aa(lp915
S'14:12'
p916
aI14
aI12
aI0
aI-1
aa(lp917
S'14:13'
p918
aI14
aI13
aI0
aF0.0036759376525878906
aa(lp919
S'14:14'
p920
aI14
aI14
aI0
aF0.004151105880737305
aa(lp921
S'14:15'
p922
aI14
aI15
aI0
aF0.002880096435546875
aa(lp923
S'14:16'
p924
aI14
aI16
aI0
aF0.003304004669189453
aa(lp925
S'14:17'
p926
aI14
aI17
aI0
aF0.0039980411529541016
aa(lp927
S'14:18'
p928
aI14
aI18
aI0
aF0.0037391185760498047
aa(lp929
S'14:19'
p930
aI14
aI19
aI0
aF0.003651857376098633
aa(lp931
S'14:20'
p932
aI14
aI20
aI0
aF0.0033609867095947266
aa(lp933
S'14:21'
p934
aI14
aI21
aI0
aF0.0034530162811279297
aa(lp935
S'14:22'
p936
aI14
aI22
aI0
aF0.0037059783935546875
aa(lp937
S'14:23'
p938
aI14
aI23
aI0
aF0.0038299560546875
aa(lp939
S'14:24'
p940
aI14
aI24
aI0
aF0.00296783447265625
aa(lp941
S'14:25'
p942
aI14
aI25
aI0
aF0.004293918609619141
aa(lp943
S'14:26'
p944
aI14
aI26
aI0
aF0.003384828567504883
aa(lp945
S'14:27'
p946
aI14
aI27
aI0
aF0.003255128860473633
aa(lp947
S'14:28'
p948
aI14
aI28
aI0
aF0.0033779144287109375
aa(lp949
S'14:29'
p950
aI14
aI29
aI0
aF0.0033190250396728516
aa(lp951
S'14:30'
p952
aI14
aI30
aI0
aF0.0037338733673095703
aa(lp953
S'14:31'
p954
aI14
aI31
aI0
aF0.003840923309326172
aa(lp955
S'14:32'
p956
aI14
aI32
aI0
aF0.0034492015838623047
aa(lp957
S'14:33'
p958
aI14
aI33
aI0
aF0.003559112548828125
aa(lp959
S'14:34'
p960
aI14
aI34
aI0
aF0.00465703010559082
aa(lp961
S'14:35'
p962
aI14
aI35
aI0
aF0.003762960433959961
aa(lp963
S'14:36'
p964
aI14
aI36
aI0
aF0.0038650035858154297
aa(lp965
S'14:37'
p966
aI14
aI37
aI0
aF0.003966093063354492
aa(lp967
S'14:38'
p968
aI14
aI38
aI0
aF0.00410008430480957
aa(lp969
S'14:39'
p970
aI14
aI39
aI0
aF0.0045299530029296875
aa(lp971
S'14:40'
p972
aI14
aI40
aI0
aF0.003921031951904297
aa(lp973
S'14:41'
p974
aI14
aI41
aI0
aF0.0040149688720703125
aa(lp975
S'14:42'
p976
aI14
aI42
aI0
aF0.00440216064453125
aa(lp977
S'14:43'
p978
aI14
aI43
aI0
aF0.004628181457519531
aa(lp979
S'14:44'
p980
aI14
aI44
aI0
aF0.004261970520019531
aa(lp981
S'14:45'
p982
aI14
aI45
aI0
aF0.005034208297729492
aa(lp983
S'14:46'
p984
aI14
aI46
aI0
aF0.00520777702331543
aa(lp985
S'14:47'
p986
aI14
aI47
aI0
aF0.004734039306640625
aa(lp987
S'14:48'
p988
aI14
aI48
aI0
aF0.004904031753540039
aa(lp989
S'14:49'
p990
aI14
aI49
aI0
aF0.004786014556884766
aa(lp991
S'14:50'
p992
aI14
aI50
aI0
aF0.004725933074951172
aa(lp993
S'14:51'
p994
aI14
aI51
aI0
aF0.004744052886962891
aa(lp995
S'14:52'
p996
aI14
aI52
aI0
aF0.00557398796081543
aa(lp997
S'14:53'
p998
aI14
aI53
aI0
aF0.005309104919433594
aa(lp999
S'14:54'
p1000
aI14
aI54
aI0
aF0.005095005035400391
aa(lp1001
S'14:55'
p1002
aI14
aI55
aI0
aF0.005227088928222656
aa(lp1003
S'14:56'
p1004
aI14
aI56
aI0
aF0.005118846893310547
aa(lp1005
S'14:57'
p1006
aI14
aI57
aI0
aF0.005158901214599609
aa(lp1007
S'14:58'
p1008
aI14
aI58
aI0
aF0.006203174591064453
aa(lp1009
S'14:59'
p1010
aI14
aI59
aI0
aF0.005666017532348633
aa(lp1011
S'14:60'
p1012
aI14
aI60
aI0
aF0.0057849884033203125
aa(lp1013
S'14:61'
p1014
aI14
aI61
aI0
aF0.006233930587768555
aa(lp1015
S'14:62'
p1016
aI14
aI62
aI0
aF0.005866050720214844
aa(lp1017
S'14:63'
p1018
aI14
aI63
aI0
aF0.006024837493896484
aa(lp1019
S'14:64'
p1020
aI14
aI64
aI0
aF0.005882978439331055
aa(lp1021
S'14:65'
p1022
aI14
aI65
aI0
aF0.006757974624633789
aa(lp1023
S'14:66'
p1024
aI14
aI66
aI0
aF0.006196022033691406
aa(lp1025
S'14:67'
p1026
aI14
aI67
aI0
aI-1
aa(lp1027
S'14:68'
p1028
aI14
aI68
aI0
aF0.006765127182006836
aa(lp1029
S'14:69'
p1030
aI14
aI69
aI0
aI-1
aa(lp1031
S'15:5'
p1032
aI15
aI5
aI0
aI-1
aa(lp1033
S'15:6'
p1034
aI15
aI6
aI0
aI-1
aa(lp1035
S'15:7'
p1036
aI15
aI7
aI0
aI-1
aa(lp1037
S'15:8'
p1038
aI15
aI8
aI0
aI-1
aa(lp1039
S'15:9'
p1040
aI15
aI9
aI0
aI-1
aa(lp1041
S'15:10'
p1042
aI15
aI10
aI0
aI-1
aa(lp1043
S'15:11'
p1044
aI15
aI11
aI0
aI-1
aa(lp1045
S'15:12'
p1046
aI15
aI12
aI0
aF0.00244903564453125
aa(lp1047
S'15:13'
p1048
aI15
aI13
aI0
aF0.0026438236236572266
aa(lp1049
S'15:14'
p1050
aI15
aI14
aI0
aF0.003964900970458984
aa(lp1051
S'15:15'
p1052
aI15
aI15
aI0
aF0.003195047378540039
aa(lp1053
S'15:16'
p1054
aI15
aI16
aI0
aF0.003551006317138672
aa(lp1055
S'15:17'
p1056
aI15
aI17
aI0
aF0.0042362213134765625
aa(lp1057
S'15:18'
p1058
aI15
aI18
aI0
aF0.003412008285522461
aa(lp1059
S'15:19'
p1060
aI15
aI19
aI0
aF0.0033729076385498047
aa(lp1061
S'15:20'
p1062
aI15
aI20
aI0
aF0.004105091094970703
aa(lp1063
S'15:21'
p1064
aI15
aI21
aI0
aF0.004313945770263672
aa(lp1065
S'15:22'
p1066
aI15
aI22
aI0
aF0.0043179988861083984
aa(lp1067
S'15:23'
p1068
aI15
aI23
aI0
aF0.0044400691986083984
aa(lp1069
S'15:24'
p1070
aI15
aI24
aI0
aF0.0034058094024658203
aa(lp1071
S'15:25'
p1072
aI15
aI25
aI0
aF0.004456996917724609
aa(lp1073
S'15:26'
p1074
aI15
aI26
aI0
aF0.004122018814086914
aa(lp1075
S'15:27'
p1076
aI15
aI27
aI0
aF0.003970146179199219
aa(lp1077
S'15:28'
p1078
aI15
aI28
aI0
aF0.005097150802612305
aa(lp1079
S'15:29'
p1080
aI15
aI29
aI0
aF0.004488945007324219
aa(lp1081
S'15:30'
p1082
aI15
aI30
aI0
aF0.00441288948059082
aa(lp1083
S'15:31'
p1084
aI15
aI31
aI0
aF0.004742145538330078
aa(lp1085
S'15:32'
p1086
aI15
aI32
aI0
aF0.0040361881256103516
aa(lp1087
S'15:33'
p1088
aI15
aI33
aI0
aF0.004117012023925781
aa(lp1089
S'15:34'
p1090
aI15
aI34
aI0
aF0.0040171146392822266
aa(lp1091
S'15:35'
p1092
aI15
aI35
aI0
aF0.004467010498046875
aa(lp1093
S'15:36'
p1094
aI15
aI36
aI0
aF0.0044841766357421875
aa(lp1095
S'15:37'
p1096
aI15
aI37
aI0
aF0.0046350955963134766
aa(lp1097
S'15:38'
p1098
aI15
aI38
aI0
aF0.0043010711669921875
aa(lp1099
S'15:39'
p1100
aI15
aI39
aI0
aF0.004454851150512695
aa(lp1101
S'15:40'
p1102
aI15
aI40
aI0
aF0.004601001739501953
aa(lp1103
S'15:41'
p1104
aI15
aI41
aI0
aF0.004842996597290039
aa(lp1105
S'15:42'
p1106
aI15
aI42
aI0
aF0.004945993423461914
aa(lp1107
S'15:43'
p1108
aI15
aI43
aI0
aF0.0051229000091552734
aa(lp1109
S'15:44'
p1110
aI15
aI44
aI0
aF0.005503177642822266
aa(lp1111
S'15:45'
p1112
aI15
aI45
aI0
aF0.0051000118255615234
aa(lp1113
S'15:46'
p1114
aI15
aI46
aI0
aF0.005229949951171875
aa(lp1115
S'15:47'
p1116
aI15
aI47
aI0
aF0.0052149295806884766
aa(lp1117
S'15:48'
p1118
aI15
aI48
aI0
aF0.005851030349731445
aa(lp1119
S'15:49'
p1120
aI15
aI49
aI0
aF0.005463123321533203
aa(lp1121
S'15:50'
p1122
aI15
aI50
aI0
aF0.005532026290893555
aa(lp1123
S'15:51'
p1124
aI15
aI51
aI0
aF0.0057430267333984375
aa(lp1125
S'15:52'
p1126
aI15
aI52
aI0
aF0.005513906478881836
aa(lp1127
S'15:53'
p1128
aI15
aI53
aI0
aF0.0057220458984375
aa(lp1129
S'15:54'
p1130
aI15
aI54
aI0
aF0.00564885139465332
aa(lp1131
S'15:55'
p1132
aI15
aI55
aI0
aF0.0053369998931884766
aa(lp1133
S'15:56'
p1134
aI15
aI56
aI0
aF0.006062984466552734
aa(lp1135
S'15:57'
p1136
aI15
aI57
aI0
aF0.0057468414306640625
aa(lp1137
S'15:58'
p1138
aI15
aI58
aI0
aF0.005872964859008789
aa(lp1139
S'15:59'
p1140
aI15
aI59
aI0
aF0.006510019302368164
aa(lp1141
S'15:60'
p1142
aI15
aI60
aI0
aF0.005823850631713867
aa(lp1143
S'15:61'
p1144
aI15
aI61
aI0
aF0.00660395622253418
aa(lp1145
S'15:62'
p1146
aI15
aI62
aI0
aF0.005887031555175781
aa(lp1147
S'15:63'
p1148
aI15
aI63
aI0
aF0.006292104721069336
aa(lp1149
S'15:64'
p1150
aI15
aI64
aI0
aF0.006942033767700195
aa(lp1151
S'15:65'
p1152
aI15
aI65
aI0
aF0.006845951080322266
aa(lp1153
S'15:66'
p1154
aI15
aI66
aI0
aF0.0067691802978515625
aa(lp1155
S'15:67'
p1156
aI15
aI67
aI0
aF0.007272958755493164
aa(lp1157
S'15:68'
p1158
aI15
aI68
aI0
aF0.007261991500854492
aa(lp1159
S'15:69'
p1160
aI15
aI69
aI0
aF0.0075609683990478516
aa(lp1161
S'15:70'
p1162
aI15
aI70
aI0
aF0.006776094436645508
aa(lp1163
S'15:71'
p1164
aI15
aI71
aI0
aF0.006649971008300781
aa(lp1165
S'15:72'
p1166
aI15
aI72
aI0
aF0.007627010345458984
aa(lp1167
S'15:73'
p1168
aI15
aI73
aI0
aF0.0069501399993896484
aa(lp1169
S'15:74'
p1170
aI15
aI74
aI0
aF0.0067138671875
aa(lp1171
S'16:5'
p1172
aI16
aI5
aI0
aI-1
aa(lp1173
S'16:6'
p1174
aI16
aI6
aI0
aI-1
aa(lp1175
S'16:7'
p1176
aI16
aI7
aI0
aI-1
aa(lp1177
S'16:8'
p1178
aI16
aI8
aI0
aI-1
aa(lp1179
S'16:9'
p1180
aI16
aI9
aI0
aI-1
aa(lp1181
S'16:10'
p1182
aI16
aI10
aI0
aI-1
aa(lp1183
S'16:11'
p1184
aI16
aI11
aI0
aI-1
aa(lp1185
S'16:12'
p1186
aI16
aI12
aI0
aI-1
aa(lp1187
S'16:13'
p1188
aI16
aI13
aI0
aF0.002675771713256836
aa(lp1189
S'16:14'
p1190
aI16
aI14
aI0
aF0.0031549930572509766
aa(lp1191
S'16:15'
p1192
aI16
aI15
aI0
aF0.00421905517578125
aa(lp1193
S'16:16'
p1194
aI16
aI16
aI0
aF0.003757953643798828
aa(lp1195
S'16:17'
p1196
aI16
aI17
aI0
aF0.0048618316650390625
aa(lp1197
S'16:18'
p1198
aI16
aI18
aI0
aF0.004037141799926758
aa(lp1199
S'16:19'
p1200
aI16
aI19
aI0
aF0.0043909549713134766
aa(lp1201
S'16:20'
p1202
aI16
aI20
aI0
aF0.004418134689331055
aa(lp1203
S'16:21'
p1204
aI16
aI21
aI0
aF0.004377841949462891
aa(lp1205
S'16:22'
p1206
aI16
aI22
aI0
aF0.0037310123443603516
aa(lp1207
S'16:23'
p1208
aI16
aI23
aI0
aF0.004767894744873047
aa(lp1209
S'16:24'
p1210
aI16
aI24
aI0
aF0.004683017730712891
aa(lp1211
S'16:25'
p1212
aI16
aI25
aI0
aF0.004369974136352539
aa(lp1213
S'16:26'
p1214
aI16
aI26
aI0
aF0.005041837692260742
aa(lp1215
S'16:27'
p1216
aI16
aI27
aI0
aF0.004199028015136719
aa(lp1217
S'16:28'
p1218
aI16
aI28
aI0
aF0.004781007766723633
aa(lp1219
S'16:29'
p1220
aI16
aI29
aI0
aF0.0046498775482177734
aa(lp1221
S'16:30'
p1222
aI16
aI30
aI0
aF0.005177974700927734
aa(lp1223
S'16:31'
p1224
aI16
aI31
aI0
aF0.004428863525390625
aa(lp1225
S'16:32'
p1226
aI16
aI32
aI0
aF0.0041811466217041016
aa(lp1227
S'16:33'
p1228
aI16
aI33
aI0
aF0.004338979721069336
aa(lp1229
S'16:34'
p1230
aI16
aI34
aI0
aF0.004642963409423828
aa(lp1231
S'16:35'
p1232
aI16
aI35
aI0
aF0.0045168399810791016
aa(lp1233
S'16:36'
p1234
aI16
aI36
aI0
aF0.004819154739379883
aa(lp1235
S'16:37'
p1236
aI16
aI37
aI0
aF0.005075931549072266
aa(lp1237
S'16:38'
p1238
aI16
aI38
aI0
aF0.005252838134765625
aa(lp1239
S'16:39'
p1240
aI16
aI39
aI0
aF0.005120038986206055
aa(lp1241
S'16:40'
p1242
aI16
aI40
aI0
aF0.0051081180572509766
aa(lp1243
S'16:41'
p1244
aI16
aI41
aI0
aF0.004994869232177734
aa(lp1245
S'16:42'
p1246
aI16
aI42
aI0
aF0.005157947540283203
aa(lp1247
S'16:43'
p1248
aI16
aI43
aI0
aF0.005568027496337891
aa(lp1249
S'16:44'
p1250
aI16
aI44
aI0
aF0.005548954010009766
aa(lp1251
S'16:45'
p1252
aI16
aI45
aI0
aF0.005408048629760742
aa(lp1253
S'16:46'
p1254
aI16
aI46
aI0
aF0.0053331851959228516
aa(lp1255
S'16:47'
p1256
aI16
aI47
aI0
aF0.005607128143310547
aa(lp1257
S'16:48'
p1258
aI16
aI48
aI0
aF0.0070400238037109375
aa(lp1259
S'16:49'
p1260
aI16
aI49
aI0
aF0.0055408477783203125
aa(lp1261
S'16:50'
p1262
aI16
aI50
aI0
aF0.005853891372680664
aa(lp1263
S'16:51'
p1264
aI16
aI51
aI0
aF0.00558018684387207
aa(lp1265
S'16:52'
p1266
aI16
aI52
aI0
aF0.005735158920288086
aa(lp1267
S'16:53'
p1268
aI16
aI53
aI0
aF0.0064699649810791016
aa(lp1269
S'16:54'
p1270
aI16
aI54
aI0
aF0.006161928176879883
aa(lp1271
S'16:55'
p1272
aI16
aI55
aI0
aF0.0064389705657958984
aa(lp1273
S'16:56'
p1274
aI16
aI56
aI0
aF0.0063359737396240234
aa(lp1275
S'16:57'
p1276
aI16
aI57
aI0
aF0.006673097610473633
aa(lp1277
S'16:58'
p1278
aI16
aI58
aI0
aF0.006900787353515625
aa(lp1279
S'16:59'
p1280
aI16
aI59
aI0
aF0.006484031677246094
aa(lp1281
S'16:60'
p1282
aI16
aI60
aI0
aF0.006775856018066406
aa(lp1283
S'16:61'
p1284
aI16
aI61
aI0
aF0.007043123245239258
aa(lp1285
S'16:62'
p1286
aI16
aI62
aI0
aF0.00670313835144043
aa(lp1287
S'16:63'
p1288
aI16
aI63
aI0
aF0.007278919219970703
aa(lp1289
S'16:64'
p1290
aI16
aI64
aI0
aF0.00690007209777832
aa(lp1291
S'16:65'
p1292
aI16
aI65
aI0
aF0.0067560672760009766
aa(lp1293
S'16:66'
p1294
aI16
aI66
aI0
aF0.0072519779205322266
aa(lp1295
S'16:67'
p1296
aI16
aI67
aI0
aF0.00741887092590332
aa(lp1297
S'16:68'
p1298
aI16
aI68
aI0
aF0.007570028305053711
aa(lp1299
S'16:69'
p1300
aI16
aI69
aI0
aF0.0073719024658203125
aa(lp1301
S'16:70'
p1302
aI16
aI70
aI0
aF0.00754094123840332
aa(lp1303
S'16:71'
p1304
aI16
aI71
aI0
aF0.007570028305053711
aa(lp1305
S'16:72'
p1306
aI16
aI72
aI0
aF0.007197141647338867
aa(lp1307
S'16:73'
p1308
aI16
aI73
aI0
aF0.007650136947631836
aa(lp1309
S'16:74'
p1310
aI16
aI74
aI0
aF0.0081939697265625
aa(lp1311
S'16:75'
p1312
aI16
aI75
aI0
aF0.007754087448120117
aa(lp1313
S'16:76'
p1314
aI16
aI76
aI0
aF0.008054971694946289
aa(lp1315
S'16:77'
p1316
aI16
aI77
aI0
aF0.008321046829223633
aa(lp1317
S'16:78'
p1318
aI16
aI78
aI0
aF0.008424997329711914
aa(lp1319
S'16:79'
p1320
aI16
aI79
aI0
aF0.008661031723022461
aa(lp1321
S'17:5'
p1322
aI17
aI5
aI0
aI-1
aa(lp1323
S'17:6'
p1324
aI17
aI6
aI0
aI-1
aa(lp1325
S'17:7'
p1326
aI17
aI7
aI0
aI-1
aa(lp1327
S'17:8'
p1328
aI17
aI8
aI0
aI-1
aa(lp1329
S'17:9'
p1330
aI17
aI9
aI0
aI-1
aa(lp1331
S'17:10'
p1332
aI17
aI10
aI0
aI-1
aa(lp1333
S'17:11'
p1334
aI17
aI11
aI0
aF0.002171039581298828
aa(lp1335
S'17:12'
p1336
aI17
aI12
aI0
aI-1
aa(lp1337
S'17:13'
p1338
aI17
aI13
aI0
aI-1
aa(lp1339
S'17:14'
p1340
aI17
aI14
aI0
aF0.0027649402618408203
aa(lp1341
S'17:15'
p1342
aI17
aI15
aI0
aF0.0050389766693115234
aa(lp1343
S'17:16'
p1344
aI17
aI16
aI0
aF0.0037648677825927734
aa(lp1345
S'17:17'
p1346
aI17
aI17
aI0
aF0.004754066467285156
aa(lp1347
S'17:18'
p1348
aI17
aI18
aI0
aF0.004870176315307617
aa(lp1349
S'17:19'
p1350
aI17
aI19
aI0
aF0.0050508975982666016
aa(lp1351
S'17:20'
p1352
aI17
aI20
aI0
aF0.004409074783325195
aa(lp1353
S'17:21'
p1354
aI17
aI21
aI0
aF0.005987882614135742
aa(lp1355
S'17:22'
p1356
aI17
aI22
aI0
aF0.004520893096923828
aa(lp1357
S'17:23'
p1358
aI17
aI23
aI0
aF0.005660057067871094
aa(lp1359
S'17:24'
p1360
aI17
aI24
aI0
aF0.0053789615631103516
aa(lp1361
S'17:25'
p1362
aI17
aI25
aI0
aF0.005032062530517578
aa(lp1363
S'17:26'
p1364
aI17
aI26
aI0
aF0.0046539306640625
aa(lp1365
S'17:27'
p1366
aI17
aI27
aI0
aF0.006131172180175781
aa(lp1367
S'17:28'
p1368
aI17
aI28
aI0
aF0.0047779083251953125
aa(lp1369
S'17:29'
p1370
aI17
aI29
aI0
aF0.005160093307495117
aa(lp1371
S'17:30'
p1372
aI17
aI30
aI0
aF0.005185842514038086
aa(lp1373
S'17:31'
p1374
aI17
aI31
aI0
aF0.00549006462097168
aa(lp1375
S'17:32'
p1376
aI17
aI32
aI0
aF0.004548072814941406
aa(lp1377
S'17:33'
p1378
aI17
aI33
aI0
aF0.005127906799316406
aa(lp1379
S'17:34'
p1380
aI17
aI34
aI0
aF0.005953788757324219
aa(lp1381
S'17:35'
p1382
aI17
aI35
aI0
aF0.005036830902099609
aa(lp1383
S'17:36'
p1384
aI17
aI36
aI0
aF0.0052340030670166016
aa(lp1385
S'17:37'
p1386
aI17
aI37
aI0
aF0.005953788757324219
aa(lp1387
S'17:38'
p1388
aI17
aI38
aI0
aF0.005184173583984375
aa(lp1389
S'17:39'
p1390
aI17
aI39
aI0
aF0.006474018096923828
aa(lp1391
S'17:40'
p1392
aI17
aI40
aI0
aF0.007582902908325195
aa(lp1393
S'17:41'
p1394
aI17
aI41
aI0
aF0.00697779655456543
aa(lp1395
S'17:42'
p1396
aI17
aI42
aI0
aF0.0055768489837646484
aa(lp1397
S'17:43'
p1398
aI17
aI43
aI0
aF0.006851911544799805
aa(lp1399
S'17:44'
p1400
aI17
aI44
aI0
aF0.0063250064849853516
aa(lp1401
S'17:45'
p1402
aI17
aI45
aI0
aF0.006128072738647461
aa(lp1403
S'17:46'
p1404
aI17
aI46
aI0
aF0.005836963653564453
aa(lp1405
S'17:47'
p1406
aI17
aI47
aI0
aF0.006134033203125
aa(lp1407
S'17:48'
p1408
aI17
aI48
aI0
aF0.006204128265380859
aa(lp1409
S'17:49'
p1410
aI17
aI49
aI0
aF0.006737947463989258
aa(lp1411
S'17:50'
p1412
aI17
aI50
aI0
aF0.006381034851074219
aa(lp1413
S'17:51'
p1414
aI17
aI51
aI0
aF0.006608009338378906
aa(lp1415
S'17:52'
p1416
aI17
aI52
aI0
aF0.006556987762451172
aa(lp1417
S'17:53'
p1418
aI17
aI53
aI0
aF0.007080078125
aa(lp1419
S'17:54'
p1420
aI17
aI54
aI0
aF0.006864070892333984
aa(lp1421
S'17:55'
p1422
aI17
aI55
aI0
aF0.007299900054931641
aa(lp1423
S'17:56'
p1424
aI17
aI56
aI0
aF0.006779909133911133
aa(lp1425
S'17:57'
p1426
aI17
aI57
aI0
aF0.007483005523681641
aa(lp1427
S'17:58'
p1428
aI17
aI58
aI0
aF0.007269859313964844
aa(lp1429
S'17:59'
p1430
aI17
aI59
aI0
aF0.0070400238037109375
aa(lp1431
S'17:60'
p1432
aI17
aI60
aI0
aF0.007904052734375
aa(lp1433
S'17:61'
p1434
aI17
aI61
aI0
aF0.007243156433105469
aa(lp1435
S'17:62'
p1436
aI17
aI62
aI0
aF0.00811004638671875
aa(lp1437
S'17:63'
p1438
aI17
aI63
aI0
aF0.007851839065551758
aa(lp1439
S'17:64'
p1440
aI17
aI64
aI0
aF0.0074520111083984375
aa(lp1441
S'17:65'
p1442
aI17
aI65
aI0
aF0.007390022277832031
aa(lp1443
S'17:66'
p1444
aI17
aI66
aI0
aF0.008260011672973633
aa(lp1445
S'17:67'
p1446
aI17
aI67
aI0
aF0.007761955261230469
aa(lp1447
S'17:68'
p1448
aI17
aI68
aI0
aF0.00757288932800293
aa(lp1449
S'17:69'
p1450
aI17
aI69
aI0
aF0.007714986801147461
aa(lp1451
S'17:70'
p1452
aI17
aI70
aI0
aF0.009155035018920898
aa(lp1453
S'17:71'
p1454
aI17
aI71
aI0
aF0.007913827896118164
aa(lp1455
S'17:72'
p1456
aI17
aI72
aI0
aF0.008002042770385742
aa(lp1457
S'17:73'
p1458
aI17
aI73
aI0
aF0.008702993392944336
aa(lp1459
S'17:74'
p1460
aI17
aI74
aI0
aF0.008233070373535156
aa(lp1461
S'17:75'
p1462
aI17
aI75
aI0
aF0.00782012939453125
aa(lp1463
S'17:76'
p1464
aI17
aI76
aI0
aF0.008595943450927734
aa(lp1465
S'17:77'
p1466
aI17
aI77
aI0
aF0.00857400894165039
aa(lp1467
S'17:78'
p1468
aI17
aI78
aI0
aF0.009264945983886719
aa(lp1469
S'17:79'
p1470
aI17
aI79
aI0
aF0.00893402099609375
aa(lp1471
S'17:80'
p1472
aI17
aI80
aI0
aF0.008430957794189453
aa(lp1473
S'17:81'
p1474
aI17
aI81
aI0
aF0.009094953536987305
aa(lp1475
S'17:82'
p1476
aI17
aI82
aI0
aF0.00952601432800293
aa(lp1477
S'17:83'
p1478
aI17
aI83
aI0
aF0.009184837341308594
aa(lp1479
S'17:84'
p1480
aI17
aI84
aI0
aF0.009855031967163086
aa(lp1481
S'18:5'
p1482
aI18
aI5
aI0
aI-1
aa(lp1483
S'18:6'
p1484
aI18
aI6
aI0
aI-1
aa(lp1485
S'18:7'
p1486
aI18
aI7
aI0
aI-1
aa(lp1487
S'18:8'
p1488
aI18
aI8
aI0
aI-1
aa(lp1489
S'18:9'
p1490
aI18
aI9
aI0
aI-1
aa(lp1491
S'18:10'
p1492
aI18
aI10
aI0
aI-1
aa(lp1493
S'18:11'
p1494
aI18
aI11
aI0
aI-1
aa(lp1495
S'18:12'
p1496
aI18
aI12
aI0
aI-1
aa(lp1497
S'18:13'
p1498
aI18
aI13
aI0
aI-1
aa(lp1499
S'18:14'
p1500
aI18
aI14
aI0
aI-1
aa(lp1501
S'18:15'
p1502
aI18
aI15
aI0
aI-1
aa(lp1503
S'18:16'
p1504
aI18
aI16
aI0
aF0.004317045211791992
aa(lp1505
S'18:17'
p1506
aI18
aI17
aI0
aF0.005362987518310547
aa(lp1507
S'18:18'
p1508
aI18
aI18
aI0
aF0.0050890445709228516
aa(lp1509
S'18:19'
p1510
aI18
aI19
aI0
aF0.00536799430847168
aa(lp1511
S'18:20'
p1512
aI18
aI20
aI0
aF0.004831075668334961
aa(lp1513
S'18:21'
p1514
aI18
aI21
aI0
aF0.008038043975830078
aa(lp1515
S'18:22'
p1516
aI18
aI22
aI0
aF0.005836009979248047
aa(lp1517
S'18:23'
p1518
aI18
aI23
aI0
aF0.004784107208251953
aa(lp1519
S'18:24'
p1520
aI18
aI24
aI0
aF0.0042989253997802734
aa(lp1521
S'18:25'
p1522
aI18
aI25
aI0
aF0.006470918655395508
aa(lp1523
S'18:26'
p1524
aI18
aI26
aI0
aF0.005338191986083984
aa(lp1525
S'18:27'
p1526
aI18
aI27
aI0
aF0.005215167999267578
aa(lp1527
S'18:28'
p1528
aI18
aI28
aI0
aF0.005351066589355469
aa(lp1529
S'18:29'
p1530
aI18
aI29
aI0
aF0.006417989730834961
aa(lp1531
S'18:30'
p1532
aI18
aI30
aI0
aF0.005883932113647461
aa(lp1533
S'18:31'
p1534
aI18
aI31
aI0
aF0.004962921142578125
aa(lp1535
S'18:32'
p1536
aI18
aI32
aI0
aF0.0057430267333984375
aa(lp1537
S'18:33'
p1538
aI18
aI33
aI0
aF0.006340980529785156
aa(lp1539
S'18:34'
p1540
aI18
aI34
aI0
aF0.005850791931152344
aa(lp1541
S'18:35'
p1542
aI18
aI35
aI0
aF0.00625300407409668
aa(lp1543
S'18:36'
p1544
aI18
aI36
aI0
aF0.005816936492919922
aa(lp1545
S'18:37'
p1546
aI18
aI37
aI0
aF0.006201982498168945
aa(lp1547
S'18:38'
p1548
aI18
aI38
aI0
aF0.006436824798583984
aa(lp1549
S'18:39'
p1550
aI18
aI39
aI0
aF0.006957054138183594
aa(lp1551
S'18:40'
p1552
aI18
aI40
aI0
aF0.006674051284790039
aa(lp1553
S'18:41'
p1554
aI18
aI41
aI0
aF0.0059299468994140625
aa(lp1555
S'18:42'
p1556
aI18
aI42
aI0
aF0.005940914154052734
aa(lp1557
S'18:43'
p1558
aI18
aI43
aI0
aF0.006480216979980469
aa(lp1559
S'18:44'
p1560
aI18
aI44
aI0
aF0.006331920623779297
aa(lp1561
S'18:45'
p1562
aI18
aI45
aI0
aF0.006443977355957031
aa(lp1563
S'18:46'
p1564
aI18
aI46
aI0
aF0.006188869476318359
aa(lp1565
S'18:47'
p1566
aI18
aI47
aI0
aF0.00603795051574707
aa(lp1567
S'18:48'
p1568
aI18
aI48
aI0
aF0.006665945053100586
aa(lp1569
S'18:49'
p1570
aI18
aI49
aI0
aF0.006967067718505859
aa(lp1571
S'18:50'
p1572
aI18
aI50
aI0
aF0.006987094879150391
aa(lp1573
S'18:51'
p1574
aI18
aI51
aI0
aF0.006843090057373047
aa(lp1575
S'18:52'
p1576
aI18
aI52
aI0
aF0.007145881652832031
aa(lp1577
S'18:53'
p1578
aI18
aI53
aI0
aF0.007560014724731445
aa(lp1579
S'18:54'
p1580
aI18
aI54
aI0
aF0.0071849822998046875
aa(lp1581
S'18:55'
p1582
aI18
aI55
aI0
aF0.007192850112915039
aa(lp1583
S'18:56'
p1584
aI18
aI56
aI0
aF0.0069580078125
aa(lp1585
S'18:57'
p1586
aI18
aI57
aI0
aF0.00799703598022461
aa(lp1587
S'18:58'
p1588
aI18
aI58
aI0
aF0.007867097854614258
aa(lp1589
S'18:59'
p1590
aI18
aI59
aI0
aF0.008054018020629883
aa(lp1591
S'18:60'
p1592
aI18
aI60
aI0
aF0.00755000114440918
aa(lp1593
S'18:61'
p1594
aI18
aI61
aI0
aF0.007827997207641602
aa(lp1595
S'18:62'
p1596
aI18
aI62
aI0
aF0.008337974548339844
aa(lp1597
S'18:63'
p1598
aI18
aI63
aI0
aF0.007876873016357422
aa(lp1599
S'18:64'
p1600
aI18
aI64
aI0
aF0.007889986038208008
aa(lp1601
S'18:65'
p1602
aI18
aI65
aI0
aF0.008213996887207031
aa(lp1603
S'18:66'
p1604
aI18
aI66
aI0
aF0.008546113967895508
aa(lp1605
S'18:67'
p1606
aI18
aI67
aI0
aF0.008198022842407227
aa(lp1607
S'18:68'
p1608
aI18
aI68
aI0
aF0.008756160736083984
aa(lp1609
S'18:69'
p1610
aI18
aI69
aI0
aF0.00849604606628418
aa(lp1611
S'18:70'
p1612
aI18
aI70
aI0
aF0.00849008560180664
aa(lp1613
S'18:71'
p1614
aI18
aI71
aI0
aF0.008540153503417969
aa(lp1615
S'18:72'
p1616
aI18
aI72
aI0
aF0.009095907211303711
aa(lp1617
S'18:73'
p1618
aI18
aI73
aI0
aF0.009037017822265625
aa(lp1619
S'18:74'
p1620
aI18
aI74
aI0
aF0.00970315933227539
aa(lp1621
S'18:75'
p1622
aI18
aI75
aI0
aF0.009704113006591797
aa(lp1623
S'18:76'
p1624
aI18
aI76
aI0
aF0.009360074996948242
aa(lp1625
S'18:77'
p1626
aI18
aI77
aI0
aF0.009135961532592773
aa(lp1627
S'18:78'
p1628
aI18
aI78
aI0
aF0.00921010971069336
aa(lp1629
S'18:79'
p1630
aI18
aI79
aI0
aF0.009824991226196289
aa(lp1631
S'18:80'
p1632
aI18
aI80
aI0
aF0.009349822998046875
aa(lp1633
S'18:81'
p1634
aI18
aI81
aI0
aF0.009365081787109375
aa(lp1635
S'18:82'
p1636
aI18
aI82
aI0
aF0.010157108306884766
aa(lp1637
S'18:83'
p1638
aI18
aI83
aI0
aF0.009801149368286133
aa(lp1639
S'18:84'
p1640
aI18
aI84
aI0
aF0.010423898696899414
aa(lp1641
S'18:85'
p1642
aI18
aI85
aI0
aF0.010802984237670898
aa(lp1643
S'18:86'
p1644
aI18
aI86
aI0
aF0.009417057037353516
aa(lp1645
S'18:87'
p1646
aI18
aI87
aI0
aF0.010267019271850586
aa(lp1647
S'18:88'
p1648
aI18
aI88
aI0
aF0.010357856750488281
aa(lp1649
S'18:89'
p1650
aI18
aI89
aI0
aF0.010219097137451172
aa(lp1651
S'19:5'
p1652
aI19
aI5
aI0
aI-1
aa(lp1653
S'19:6'
p1654
aI19
aI6
aI0
aI-1
aa(lp1655
S'19:7'
p1656
aI19
aI7
aI0
aI-1
aa(lp1657
S'19:8'
p1658
aI19
aI8
aI0
aI-1
aa(lp1659
S'19:9'
p1660
aI19
aI9
aI0
aI-1
aa(lp1661
S'19:10'
p1662
aI19
aI10
aI0
aI-1
aa(lp1663
S'19:11'
p1664
aI19
aI11
aI0
aI-1
aa(lp1665
S'19:12'
p1666
aI19
aI12
aI0
aI-1
aa(lp1667
S'19:13'
p1668
aI19
aI13
aI0
aI-1
aa(lp1669
S'19:14'
p1670
aI19
aI14
aI0
aI-1
aa(lp1671
S'19:15'
p1672
aI19
aI15
aI0
aI-1
aa(lp1673
S'19:16'
p1674
aI19
aI16
aI0
aF0.004211902618408203
aa(lp1675
S'19:17'
p1676
aI19
aI17
aI0
aF0.005714893341064453
aa(lp1677
S'19:18'
p1678
aI19
aI18
aI0
aF0.0063970088958740234
aa(lp1679
S'19:19'
p1680
aI19
aI19
aI0
aF0.006947040557861328
aa(lp1681
S'19:20'
p1682
aI19
aI20
aI0
aF0.007089853286743164
aa(lp1683
S'19:21'
p1684
aI19
aI21
aI0
aF0.006591081619262695
aa(lp1685
S'19:22'
p1686
aI19
aI22
aI0
aF0.006139993667602539
aa(lp1687
S'19:23'
p1688
aI19
aI23
aI0
aF0.005755901336669922
aa(lp1689
S'19:24'
p1690
aI19
aI24
aI0
aF0.0056760311126708984
aa(lp1691
S'19:25'
p1692
aI19
aI25
aI0
aF0.005949974060058594
aa(lp1693
S'19:26'
p1694
aI19
aI26
aI0
aF0.005755186080932617
aa(lp1695
S'19:27'
p1696
aI19
aI27
aI0
aF0.006124973297119141
aa(lp1697
S'19:28'
p1698
aI19
aI28
aI0
aF0.006479024887084961
aa(lp1699
S'19:29'
p1700
aI19
aI29
aI0
aF0.006567955017089844
aa(lp1701
S'19:30'
p1702
aI19
aI30
aI0
aF0.005834817886352539
aa(lp1703
S'19:31'
p1704
aI19
aI31
aI0
aF0.0068359375
aa(lp1705
S'19:32'
p1706
aI19
aI32
aI0
aF0.0066699981689453125
aa(lp1707
S'19:33'
p1708
aI19
aI33
aI0
aF0.006166934967041016
aa(lp1709
S'19:34'
p1710
aI19
aI34
aI0
aF0.0061359405517578125
aa(lp1711
S'19:35'
p1712
aI19
aI35
aI0
aF0.006479024887084961
aa(lp1713
S'19:36'
p1714
aI19
aI36
aI0
aF0.0062978267669677734
aa(lp1715
S'19:37'
p1716
aI19
aI37
aI0
aF0.005852222442626953
aa(lp1717
S'19:38'
p1718
aI19
aI38
aI0
aF0.007884979248046875
aa(lp1719
S'19:39'
p1720
aI19
aI39
aI0
aF0.006609916687011719
aa(lp1721
S'19:40'
p1722
aI19
aI40
aI0
aF0.006162166595458984
aa(lp1723
S'19:41'
p1724
aI19
aI41
aI0
aF0.0067560672760009766
aa(lp1725
S'19:42'
p1726
aI19
aI42
aI0
aF0.006328105926513672
aa(lp1727
S'19:43'
p1728
aI19
aI43
aI0
aF0.006722927093505859
aa(lp1729
S'19:44'
p1730
aI19
aI44
aI0
aF0.007071018218994141
aa(lp1731
S'19:45'
p1732
aI19
aI45
aI0
aF0.006696939468383789
aa(lp1733
S'19:46'
p1734
aI19
aI46
aI0
aF0.007364988327026367
aa(lp1735
S'19:47'
p1736
aI19
aI47
aI0
aF0.007986068725585938
aa(lp1737
S'19:48'
p1738
aI19
aI48
aI0
aF0.006855010986328125
aa(lp1739
S'19:49'
p1740
aI19
aI49
aI0
aF0.0068819522857666016
aa(lp1741
S'19:50'
p1742
aI19
aI50
aI0
aF0.007605075836181641
aa(lp1743
S'19:51'
p1744
aI19
aI51
aI0
aF0.0077130794525146484
aa(lp1745
S'19:52'
p1746
aI19
aI52
aI0
aF0.00813603401184082
aa(lp1747
S'19:53'
p1748
aI19
aI53
aI0
aF0.0072519779205322266
aa(lp1749
S'19:54'
p1750
aI19
aI54
aI0
aF0.008298873901367188
aa(lp1751
S'19:55'
p1752
aI19
aI55
aI0
aF0.007295131683349609
aa(lp1753
S'19:56'
p1754
aI19
aI56
aI0
aF0.007689952850341797
aa(lp1755
S'19:57'
p1756
aI19
aI57
aI0
aF0.007512092590332031
aa(lp1757
S'19:58'
p1758
aI19
aI58
aI0
aF0.008671045303344727
aa(lp1759
S'19:59'
p1760
aI19
aI59
aI0
aF0.007730007171630859
aa(lp1761
S'19:60'
p1762
aI19
aI60
aI0
aF0.00801706314086914
aa(lp1763
S'19:61'
p1764
aI19
aI61
aI0
aF0.008258819580078125
aa(lp1765
S'19:62'
p1766
aI19
aI62
aI0
aF0.008971929550170898
aa(lp1767
S'19:63'
p1768
aI19
aI63
aI0
aF0.008311033248901367
aa(lp1769
S'19:64'
p1770
aI19
aI64
aI0
aF0.008335113525390625
aa(lp1771
S'19:65'
p1772
aI19
aI65
aI0
aF0.008538961410522461
aa(lp1773
S'19:66'
p1774
aI19
aI66
aI0
aF0.009422063827514648
aa(lp1775
S'19:67'
p1776
aI19
aI67
aI0
aF0.008742809295654297
aa(lp1777
S'19:68'
p1778
aI19
aI68
aI0
aF0.008685111999511719
aa(lp1779
S'19:69'
p1780
aI19
aI69
aI0
aF0.009612083435058594
aa(lp1781
S'19:70'
p1782
aI19
aI70
aI0
aF0.009395122528076172
aa(lp1783
S'19:71'
p1784
aI19
aI71
aI0
aF0.009453773498535156
aa(lp1785
S'19:72'
p1786
aI19
aI72
aI0
aF0.009341955184936523
aa(lp1787
S'19:73'
p1788
aI19
aI73
aI0
aF0.009432077407836914
aa(lp1789
S'19:74'
p1790
aI19
aI74
aI0
aF0.009276866912841797
aa(lp1791
S'19:75'
p1792
aI19
aI75
aI0
aF0.009495019912719727
aa(lp1793
S'19:76'
p1794
aI19
aI76
aI0
aF0.009640932083129883
aa(lp1795
S'19:77'
p1796
aI19
aI77
aI0
aF0.010181903839111328
aa(lp1797
S'19:78'
p1798
aI19
aI78
aI0
aF0.009705066680908203
aa(lp1799
S'19:79'
p1800
aI19
aI79
aI0
aF0.010200023651123047
aa(lp1801
S'19:80'
p1802
aI19
aI80
aI0
aF0.01046609878540039
aa(lp1803
S'19:81'
p1804
aI19
aI81
aI0
aF0.010165929794311523
aa(lp1805
S'19:82'
p1806
aI19
aI82
aI0
aF0.011276006698608398
aa(lp1807
S'19:83'
p1808
aI19
aI83
aI0
aF0.01011204719543457
aa(lp1809
S'19:84'
p1810
aI19
aI84
aI0
aF0.011374950408935547
aa(lp1811
S'19:85'
p1812
aI19
aI85
aI0
aF0.010827064514160156
aa(lp1813
S'19:86'
p1814
aI19
aI86
aI0
aF0.010680198669433594
aa(lp1815
S'19:87'
p1816
aI19
aI87
aI0
aF0.01181793212890625
aa(lp1817
S'19:88'
p1818
aI19
aI88
aI0
aF0.011013984680175781
aa(lp1819
S'19:89'
p1820
aI19
aI89
aI0
aF0.010509967803955078
aa(lp1821
S'19:90'
p1822
aI19
aI90
aI0
aF0.01143789291381836
aa(lp1823
S'19:91'
p1824
aI19
aI91
aI0
aF0.010582923889160156
aa(lp1825
S'19:92'
p1826
aI19
aI92
aI0
aF0.011119842529296875
aa(lp1827
S'19:93'
p1828
aI19
aI93
aI0
aF0.01182699203491211
aa(lp1829
S'19:94'
p1830
aI19
aI94
aI0
aF0.011830806732177734
aa(lp1831
S'20:5'
p1832
aI20
aI5
aI0
aI-1
aa(lp1833
S'20:6'
p1834
aI20
aI6
aI0
aI-1
aa(lp1835
S'20:7'
p1836
aI20
aI7
aI0
aI-1
aa(lp1837
S'20:8'
p1838
aI20
aI8
aI0
aI-1
aa(lp1839
S'20:9'
p1840
aI20
aI9
aI0
aI-1
aa(lp1841
S'20:10'
p1842
aI20
aI10
aI0
aI-1
aa(lp1843
S'20:11'
p1844
aI20
aI11
aI0
aI-1
aa(lp1845
S'20:12'
p1846
aI20
aI12
aI0
aI-1
aa(lp1847
S'20:13'
p1848
aI20
aI13
aI0
aI-1
aa(lp1849
S'20:14'
p1850
aI20
aI14
aI0
aI-1
aa(lp1851
S'20:15'
p1852
aI20
aI15
aI0
aI-1
aa(lp1853
S'20:16'
p1854
aI20
aI16
aI0
aI-1
aa(lp1855
S'20:17'
p1856
aI20
aI17
aI0
aF0.004409074783325195
aa(lp1857
S'20:18'
p1858
aI20
aI18
aI0
aF0.005995035171508789
aa(lp1859
S'20:19'
p1860
aI20
aI19
aI0
aF0.00513005256652832
aa(lp1861
S'20:20'
p1862
aI20
aI20
aI0
aF0.005997180938720703
aa(lp1863
S'20:21'
p1864
aI20
aI21
aI0
aF0.006443023681640625
aa(lp1865
S'20:22'
p1866
aI20
aI22
aI0
aF0.0072290897369384766
aa(lp1867
S'20:23'
p1868
aI20
aI23
aI0
aF0.005346059799194336
aa(lp1869
S'20:24'
p1870
aI20
aI24
aI0
aF0.005702972412109375
aa(lp1871
S'20:25'
p1872
aI20
aI25
aI0
aF0.0063018798828125
aa(lp1873
S'20:26'
p1874
aI20
aI26
aI0
aF0.0076029300689697266
aa(lp1875
S'20:27'
p1876
aI20
aI27
aI0
aF0.005758047103881836
aa(lp1877
S'20:28'
p1878
aI20
aI28
aI0
aF0.0075681209564208984
aa(lp1879
S'20:29'
p1880
aI20
aI29
aI0
aF0.006504058837890625
aa(lp1881
S'20:30'
p1882
aI20
aI30
aI0
aF0.0071451663970947266
aa(lp1883
S'20:31'
p1884
aI20
aI31
aI0
aF0.006936073303222656
aa(lp1885
S'20:32'
p1886
aI20
aI32
aI0
aF0.006364107131958008
aa(lp1887
S'20:33'
p1888
aI20
aI33
aI0
aF0.007061004638671875
aa(lp1889
S'20:34'
p1890
aI20
aI34
aI0
aF0.006751060485839844
aa(lp1891
S'20:35'
p1892
aI20
aI35
aI0
aF0.008485078811645508
aa(lp1893
S'20:36'
p1894
aI20
aI36
aI0
aF0.006103038787841797
aa(lp1895
S'20:37'
p1896
aI20
aI37
aI0
aF0.006923198699951172
aa(lp1897
S'20:38'
p1898
aI20
aI38
aI0
aF0.00619816780090332
aa(lp1899
S'20:39'
p1900
aI20
aI39
aI0
aF0.008190155029296875
aa(lp1901
S'20:40'
p1902
aI20
aI40
aI0
aF0.0067369937896728516
aa(lp1903
S'20:41'
p1904
aI20
aI41
aI0
aF0.00638890266418457
aa(lp1905
S'20:42'
p1906
aI20
aI42
aI0
aF0.009888172149658203
aa(lp1907
S'20:43'
p1908
aI20
aI43
aI0
aF0.007588863372802734
aa(lp1909
S'20:44'
p1910
aI20
aI44
aI0
aF0.007828950881958008
aa(lp1911
S'20:45'
p1912
aI20
aI45
aI0
aF0.007411003112792969
aa(lp1913
S'20:46'
p1914
aI20
aI46
aI0
aF0.007405996322631836
aa(lp1915
S'20:47'
p1916
aI20
aI47
aI0
aF0.007681846618652344
aa(lp1917
S'20:48'
p1918
aI20
aI48
aI0
aF0.008222103118896484
aa(lp1919
S'20:49'
p1920
aI20
aI49
aI0
aF0.007707834243774414
aa(lp1921
S'20:50'
p1922
aI20
aI50
aI0
aF0.008896112442016602
aa(lp1923
S'20:51'
p1924
aI20
aI51
aI0
aF0.0076100826263427734
aa(lp1925
S'20:52'
p1926
aI20
aI52
aI0
aF0.008523941040039062
aa(lp1927
S'20:53'
p1928
aI20
aI53
aI0
aF0.00832819938659668
aa(lp1929
S'20:54'
p1930
aI20
aI54
aI0
aF0.009217023849487305
aa(lp1931
S'20:55'
p1932
aI20
aI55
aI0
aF0.008410930633544922
aa(lp1933
S'20:56'
p1934
aI20
aI56
aI0
aF0.009613037109375
aa(lp1935
S'20:57'
p1936
aI20
aI57
aI0
aF0.008939981460571289
aa(lp1937
S'20:58'
p1938
aI20
aI58
aI0
aF0.008721113204956055
aa(lp1939
S'20:59'
p1940
aI20
aI59
aI0
aF0.008989095687866211
aa(lp1941
S'20:60'
p1942
aI20
aI60
aI0
aF0.008955955505371094
aa(lp1943
S'20:61'
p1944
aI20
aI61
aI0
aF0.00883793830871582
aa(lp1945
S'20:62'
p1946
aI20
aI62
aI0
aF0.009387016296386719
aa(lp1947
S'20:63'
p1948
aI20
aI63
aI0
aF0.010474920272827148
aa(lp1949
S'20:64'
p1950
aI20
aI64
aI0
aF0.00882720947265625
aa(lp1951
S'20:65'
p1952
aI20
aI65
aI0
aF0.009370088577270508
aa(lp1953
S'20:66'
p1954
aI20
aI66
aI0
aF0.009768962860107422
aa(lp1955
S'20:67'
p1956
aI20
aI67
aI0
aF0.009629964828491211
aa(lp1957
S'20:68'
p1958
aI20
aI68
aI0
aF0.009385824203491211
aa(lp1959
S'20:69'
p1960
aI20
aI69
aI0
aF0.010596036911010742
aa(lp1961
S'20:70'
p1962
aI20
aI70
aI0
aF0.009808063507080078
aa(lp1963
S'20:71'
p1964
aI20
aI71
aI0
aF0.009449958801269531
aa(lp1965
S'20:72'
p1966
aI20
aI72
aI0
aF0.010453939437866211
aa(lp1967
S'20:73'
p1968
aI20
aI73
aI0
aF0.010239124298095703
aa(lp1969
S'20:74'
p1970
aI20
aI74
aI0
aF0.009885072708129883
aa(lp1971
S'20:75'
p1972
aI20
aI75
aI0
aF0.010868072509765625
aa(lp1973
S'20:76'
p1974
aI20
aI76
aI0
aF0.010181903839111328
aa(lp1975
S'20:77'
p1976
aI20
aI77
aI0
aF0.009833812713623047
aa(lp1977
S'20:78'
p1978
aI20
aI78
aI0
aF0.011459827423095703
aa(lp1979
S'20:79'
p1980
aI20
aI79
aI0
aF0.01058197021484375
aa(lp1981
S'20:80'
p1982
aI20
aI80
aI0
aF0.010531187057495117
aa(lp1983
S'20:81'
p1984
aI20
aI81
aI0
aF0.011651039123535156
aa(lp1985
S'20:82'
p1986
aI20
aI82
aI0
aF0.010432958602905273
aa(lp1987
S'20:83'
p1988
aI20
aI83
aI0
aF0.011096954345703125
aa(lp1989
S'20:84'
p1990
aI20
aI84
aI0
aF0.011569023132324219
aa(lp1991
S'20:85'
p1992
aI20
aI85
aI0
aF0.012341976165771484
aa(lp1993
S'20:86'
p1994
aI20
aI86
aI0
aF0.011933088302612305
aa(lp1995
S'20:87'
p1996
aI20
aI87
aI0
aF0.012098073959350586
aa(lp1997
S'20:88'
p1998
aI20
aI88
aI0
aF0.01181793212890625
aa(lp1999
S'20:89'
p2000
aI20
aI89
aI0
aF0.012484073638916016
aa(lp2001
S'20:90'
p2002
aI20
aI90
aI0
aF0.011518001556396484
aa(lp2003
S'20:91'
p2004
aI20
aI91
aI0
aF0.013143777847290039
aa(lp2005
S'20:92'
p2006
aI20
aI92
aI0
aF0.011857986450195312
aa(lp2007
S'20:93'
p2008
aI20
aI93
aI0
aF0.012468099594116211
aa(lp2009
S'20:94'
p2010
aI20
aI94
aI0
aF0.012778997421264648
aa(lp2011
S'20:95'
p2012
aI20
aI95
aI0
aF0.012708902359008789
aa(lp2013
S'20:96'
p2014
aI20
aI96
aI0
aF0.013410091400146484
aa(lp2015
S'20:97'
p2016
aI20
aI97
aI0
aF0.013051986694335938
aa(lp2017
S'20:98'
p2018
aI20
aI98
aI0
aF0.013624906539916992
aa(lp2019
S'20:99'
p2020
aI20
aI99
aI0
aF0.01250910758972168
aa(lp2021
S'21:5'
p2022
aI21
aI5
aI0
aI-1
aa(lp2023
S'21:6'
p2024
aI21
aI6
aI0
aI-1
aa(lp2025
S'21:7'
p2026
aI21
aI7
aI0
aI-1
aa(lp2027
S'21:8'
p2028
aI21
aI8
aI0
aI-1
aa(lp2029
S'21:9'
p2030
aI21
aI9
aI0
aI-1
aa(lp2031
S'21:10'
p2032
aI21
aI10
aI0
aI-1
aa(lp2033
S'21:11'
p2034
aI21
aI11
aI0
aI-1
aa(lp2035
S'21:12'
p2036
aI21
aI12
aI0
aI-1
aa(lp2037
S'21:13'
p2038
aI21
aI13
aI0
aI-1
aa(lp2039
S'21:14'
p2040
aI21
aI14
aI0
aI-1
aa(lp2041
S'21:15'
p2042
aI21
aI15
aI0
aI-1
aa(lp2043
S'21:16'
p2044
aI21
aI16
aI0
aI-1
aa(lp2045
S'21:17'
p2046
aI21
aI17
aI0
aI-1
aa(lp2047
S'21:18'
p2048
aI21
aI18
aI0
aF0.005608797073364258
aa(lp2049
S'21:19'
p2050
aI21
aI19
aI0
aF0.0067291259765625
aa(lp2051
S'21:20'
p2052
aI21
aI20
aI0
aF0.006575107574462891
aa(lp2053
S'21:21'
p2054
aI21
aI21
aI0
aF0.008861064910888672
aa(lp2055
S'21:22'
p2056
aI21
aI22
aI0
aF0.007662057876586914
aa(lp2057
S'21:23'
p2058
aI21
aI23
aI0
aF0.007982015609741211
aa(lp2059
S'21:24'
p2060
aI21
aI24
aI0
aF0.009372949600219727
aa(lp2061
S'21:25'
p2062
aI21
aI25
aI0
aF0.006537914276123047
aa(lp2063
S'21:26'
p2064
aI21
aI26
aI0
aF0.006842851638793945
aa(lp2065
S'21:27'
p2066
aI21
aI27
aI0
aF0.00669097900390625
aa(lp2067
S'21:28'
p2068
aI21
aI28
aI0
aF0.008400917053222656
aa(lp2069
S'21:29'
p2070
aI21
aI29
aI0
aF0.006561994552612305
aa(lp2071
S'21:30'
p2072
aI21
aI30
aI0
aF0.007768869400024414
aa(lp2073
S'21:31'
p2074
aI21
aI31
aI0
aF0.00618290901184082
aa(lp2075
S'21:32'
p2076
aI21
aI32
aI0
aF0.007718086242675781
aa(lp2077
S'21:33'
p2078
aI21
aI33
aI0
aF0.007611989974975586
aa(lp2079
S'21:34'
p2080
aI21
aI34
aI0
aF0.008130073547363281
aa(lp2081
S'21:35'
p2082
aI21
aI35
aI0
aF0.007844924926757812
aa(lp2083
S'21:36'
p2084
aI21
aI36
aI0
aF0.007988214492797852
aa(lp2085
S'21:37'
p2086
aI21
aI37
aI0
aF0.008702993392944336
aa(lp2087
S'21:38'
p2088
aI21
aI38
aI0
aF0.007177114486694336
aa(lp2089
S'21:39'
p2090
aI21
aI39
aI0
aF0.007069110870361328
aa(lp2091
S'21:40'
p2092
aI21
aI40
aI0
aF0.008407115936279297
aa(lp2093
S'21:41'
p2094
aI21
aI41
aI0
aF0.009031057357788086
aa(lp2095
S'21:42'
p2096
aI21
aI42
aI0
aF0.007225990295410156
aa(lp2097
S'21:43'
p2098
aI21
aI43
aI0
aF0.007864952087402344
aa(lp2099
S'21:44'
p2100
aI21
aI44
aI0
aF0.007612943649291992
aa(lp2101
S'21:45'
p2102
aI21
aI45
aI0
aF0.008465051651000977
aa(lp2103
S'21:46'
p2104
aI21
aI46
aI0
aF0.008141040802001953
aa(lp2105
S'21:47'
p2106
aI21
aI47
aI0
aF0.00804591178894043
aa(lp2107
S'21:48'
p2108
aI21
aI48
aI0
aF0.009109020233154297
aa(lp2109
S'21:49'
p2110
aI21
aI49
aI0
aF0.008237123489379883
aa(lp2111
S'21:50'
p2112
aI21
aI50
aI0
aF0.008418083190917969
aa(lp2113
S'21:51'
p2114
aI21
aI51
aI0
aF0.009174108505249023
aa(lp2115
S'21:52'
p2116
aI21
aI52
aI0
aF0.008633852005004883
aa(lp2117
S'21:53'
p2118
aI21
aI53
aI0
aF0.008991003036499023
aa(lp2119
S'21:54'
p2120
aI21
aI54
aI0
aF0.008895158767700195
aa(lp2121
S'21:55'
p2122
aI21
aI55
aI0
aF0.008813142776489258
aa(lp2123
S'21:56'
p2124
aI21
aI56
aI0
aF0.009300947189331055
aa(lp2125
S'21:57'
p2126
aI21
aI57
aI0
aF0.008926153182983398
aa(lp2127
S'21:58'
p2128
aI21
aI58
aI0
aF0.008440971374511719
aa(lp2129
S'21:59'
p2130
aI21
aI59
aI0
aF0.009487152099609375
aa(lp2131
S'21:60'
p2132
aI21
aI60
aI0
aF0.009018898010253906
aa(lp2133
S'21:61'
p2134
aI21
aI61
aI0
aF0.009546041488647461
aa(lp2135
S'21:62'
p2136
aI21
aI62
aI0
aF0.009691953659057617
aa(lp2137
S'21:63'
p2138
aI21
aI63
aI0
aF0.009992837905883789
aa(lp2139
S'21:64'
p2140
aI21
aI64
aI0
aF0.009938955307006836
aa(lp2141
S'21:65'
p2142
aI21
aI65
aI0
aF0.009783029556274414
aa(lp2143
S'21:66'
p2144
aI21
aI66
aI0
aF0.010294914245605469
aa(lp2145
S'21:67'
p2146
aI21
aI67
aI0
aF0.010091066360473633
aa(lp2147
S'21:68'
p2148
aI21
aI68
aI0
aF0.010370016098022461
aa(lp2149
S'21:69'
p2150
aI21
aI69
aI0
aF0.011729001998901367
aa(lp2151
S'21:70'
p2152
aI21
aI70
aI0
aF0.010334968566894531
aa(lp2153
S'21:71'
p2154
aI21
aI71
aI0
aF0.011052846908569336
aa(lp2155
S'21:72'
p2156
aI21
aI72
aI0
aF0.01140594482421875
aa(lp2157
S'21:73'
p2158
aI21
aI73
aI0
aF0.010697126388549805
aa(lp2159
S'21:74'
p2160
aI21
aI74
aI0
aF0.010850906372070312
aa(lp2161
S'21:75'
p2162
aI21
aI75
aI0
aF0.011026859283447266
aa(lp2163
S'21:76'
p2164
aI21
aI76
aI0
aF0.011072158813476562
aa(lp2165
S'21:77'
p2166
aI21
aI77
aI0
aF0.011867046356201172
aa(lp2167
S'21:78'
p2168
aI21
aI78
aI0
aF0.011341094970703125
aa(lp2169
S'21:79'
p2170
aI21
aI79
aI0
aF0.011871099472045898
aa(lp2171
S'21:80'
p2172
aI21
aI80
aI0
aF0.011842966079711914
aa(lp2173
S'21:81'
p2174
aI21
aI81
aI0
aF0.011332988739013672
aa(lp2175
S'21:82'
p2176
aI21
aI82
aI0
aF0.01178598403930664
aa(lp2177
S'21:83'
p2178
aI21
aI83
aI0
aF0.012302160263061523
aa(lp2179
S'21:84'
p2180
aI21
aI84
aI0
aF0.011495828628540039
aa(lp2181
S'21:85'
p2182
aI21
aI85
aI0
aF0.013675928115844727
aa(lp2183
S'21:86'
p2184
aI21
aI86
aI0
aF0.012311935424804688
aa(lp2185
S'21:87'
p2186
aI21
aI87
aI0
aF0.012443065643310547
aa(lp2187
S'21:88'
p2188
aI21
aI88
aI0
aF0.013093948364257812
aa(lp2189
S'21:89'
p2190
aI21
aI89
aI0
aF0.012778997421264648
aa(lp2191
S'21:90'
p2192
aI21
aI90
aI0
aF0.01343393325805664
aa(lp2193
S'21:91'
p2194
aI21
aI91
aI0
aF0.012820959091186523
aa(lp2195
S'21:92'
p2196
aI21
aI92
aI0
aF0.013329029083251953
aa(lp2197
S'21:93'
p2198
aI21
aI93
aI0
aF0.013370990753173828
aa(lp2199
S'21:94'
p2200
aI21
aI94
aI0
aF0.013108968734741211
aa(lp2201
S'21:95'
p2202
aI21
aI95
aI0
aF0.013458013534545898
aa(lp2203
S'21:96'
p2204
aI21
aI96
aI0
aF0.013853788375854492
aa(lp2205
S'21:97'
p2206
aI21
aI97
aI0
aF0.013545036315917969
aa(lp2207
S'21:98'
p2208
aI21
aI98
aI0
aF0.013827085494995117
aa(lp2209
S'21:99'
p2210
aI21
aI99
aI0
aF0.013416051864624023
aa(lp2211
S'21:100'
p2212
aI21
aI100
aI0
aF0.01322484016418457
aa(lp2213
S'21:101'
p2214
aI21
aI101
aI0
aF0.014071941375732422
aa(lp2215
S'21:102'
p2216
aI21
aI102
aI0
aF0.013895988464355469
aa(lp2217
S'21:103'
p2218
aI21
aI103
aI0
aF0.014784812927246094
aa(lp2219
S'21:104'
p2220
aI21
aI104
aI0
aF0.013521909713745117
aa(lp2221
S'22:5'
p2222
aI22
aI5
aI0
aI-1
aa(lp2223
S'22:6'
p2224
aI22
aI6
aI0
aI-1
aa(lp2225
S'22:7'
p2226
aI22
aI7
aI0
aI-1
aa(lp2227
S'22:8'
p2228
aI22
aI8
aI0
aI-1
aa(lp2229
S'22:9'
p2230
aI22
aI9
aI0
aI-1
aa(lp2231
S'22:10'
p2232
aI22
aI10
aI0
aI-1
aa(lp2233
S'22:11'
p2234
aI22
aI11
aI0
aI-1
aa(lp2235
S'22:12'
p2236
aI22
aI12
aI0
aI-1
aa(lp2237
S'22:13'
p2238
aI22
aI13
aI0
aI-1
aa(lp2239
S'22:14'
p2240
aI22
aI14
aI0
aI-1
aa(lp2241
S'22:15'
p2242
aI22
aI15
aI0
aI-1
aa(lp2243
S'22:16'
p2244
aI22
aI16
aI0
aI-1
aa(lp2245
S'22:17'
p2246
aI22
aI17
aI0
aI-1
aa(lp2247
S'22:18'
p2248
aI22
aI18
aI0
aF0.004024028778076172
aa(lp2249
S'22:19'
p2250
aI22
aI19
aI0
aF0.005738973617553711
aa(lp2251
S'22:20'
p2252
aI22
aI20
aI0
aF0.006279945373535156
aa(lp2253
S'22:21'
p2254
aI22
aI21
aI0
aF0.007208824157714844
aa(lp2255
S'22:22'
p2256
aI22
aI22
aI0
aF0.006379127502441406
aa(lp2257
S'22:23'
p2258
aI22
aI23
aI0
aF0.013852119445800781
aa(lp2259
S'22:24'
p2260
aI22
aI24
aI0
aF0.00858306884765625
aa(lp2261
S'22:25'
p2262
aI22
aI25
aI0
aF0.006299018859863281
aa(lp2263
S'22:26'
p2264
aI22
aI26
aI0
aF0.008054971694946289
aa(lp2265
S'22:27'
p2266
aI22
aI27
aI0
aF0.007614850997924805
aa(lp2267
S'22:28'
p2268
aI22
aI28
aI0
aF0.007796049118041992
aa(lp2269
S'22:29'
p2270
aI22
aI29
aI0
aF0.00866389274597168
aa(lp2271
S'22:30'
p2272
aI22
aI30
aI0
aF0.006837129592895508
aa(lp2273
S'22:31'
p2274
aI22
aI31
aI0
aF0.007970094680786133
aa(lp2275
S'22:32'
p2276
aI22
aI32
aI0
aF0.007701873779296875
aa(lp2277
S'22:33'
p2278
aI22
aI33
aI0
aF0.009058952331542969
aa(lp2279
S'22:34'
p2280
aI22
aI34
aI0
aF0.007325172424316406
aa(lp2281
S'22:35'
p2282
aI22
aI35
aI0
aF0.008780956268310547
aa(lp2283
S'22:36'
p2284
aI22
aI36
aI0
aF0.008875131607055664
aa(lp2285
S'22:37'
p2286
aI22
aI37
aI0
aF0.00848698616027832
aa(lp2287
S'22:38'
p2288
aI22
aI38
aI0
aF0.009803056716918945
aa(lp2289
S'22:39'
p2290
aI22
aI39
aI0
aF0.008153915405273438
aa(lp2291
S'22:40'
p2292
aI22
aI40
aI0
aF0.00836491584777832
aa(lp2293
S'22:41'
p2294
aI22
aI41
aI0
aF0.008791923522949219
aa(lp2295
S'22:42'
p2296
aI22
aI42
aI0
aF0.008188009262084961
aa(lp2297
S'22:43'
p2298
aI22
aI43
aI0
aF0.008147954940795898
aa(lp2299
S'22:44'
p2300
aI22
aI44
aI0
aF0.00938105583190918
aa(lp2301
S'22:45'
p2302
aI22
aI45
aI0
aF0.008666038513183594
aa(lp2303
S'22:46'
p2304
aI22
aI46
aI0
aF0.008700847625732422
aa(lp2305
S'22:47'
p2306
aI22
aI47
aI0
aF0.008230924606323242
aa(lp2307
S'22:48'
p2308
aI22
aI48
aI0
aF0.010097026824951172
aa(lp2309
S'22:49'
p2310
aI22
aI49
aI0
aF0.009186029434204102
aa(lp2311
S'22:50'
p2312
aI22
aI50
aI0
aF0.009572029113769531
aa(lp2313
S'22:51'
p2314
aI22
aI51
aI0
aF0.008893013000488281
aa(lp2315
S'22:52'
p2316
aI22
aI52
aI0
aF0.010231971740722656
aa(lp2317
S'22:53'
p2318
aI22
aI53
aI0
aF0.009294986724853516
aa(lp2319
S'22:54'
p2320
aI22
aI54
aI0
aF0.008826971054077148
aa(lp2321
S'22:55'
p2322
aI22
aI55
aI0
aF0.009418010711669922
aa(lp2323
S'22:56'
p2324
aI22
aI56
aI0
aF0.009228944778442383
aa(lp2325
S'22:57'
p2326
aI22
aI57
aI0
aF0.010370016098022461
aa(lp2327
S'22:58'
p2328
aI22
aI58
aI0
aF0.009836912155151367
aa(lp2329
S'22:59'
p2330
aI22
aI59
aI0
aF0.010588884353637695
aa(lp2331
S'22:60'
p2332
aI22
aI60
aI0
aF0.011255979537963867
aa(lp2333
S'22:61'
p2334
aI22
aI61
aI0
aF0.010244131088256836
aa(lp2335
S'22:62'
p2336
aI22
aI62
aI0
aF0.012038946151733398
aa(lp2337
S'22:63'
p2338
aI22
aI63
aI0
aF0.009764909744262695
aa(lp2339
S'22:64'
p2340
aI22
aI64
aI0
aF0.01157999038696289
aa(lp2341
S'22:65'
p2342
aI22
aI65
aI0
aF0.010632991790771484
aa(lp2343
S'22:66'
p2344
aI22
aI66
aI0
aF0.010624885559082031
aa(lp2345
S'22:67'
p2346
aI22
aI67
aI0
aF0.013609170913696289
aa(lp2347
S'22:68'
p2348
aI22
aI68
aI0
aF0.010751962661743164
aa(lp2349
S'22:69'
p2350
aI22
aI69
aI0
aF0.012605905532836914
aa(lp2351
S'22:70'
p2352
aI22
aI70
aI0
aF0.011674165725708008
aa(lp2353
S'22:71'
p2354
aI22
aI71
aI0
aF0.012150049209594727
aa(lp2355
S'22:72'
p2356
aI22
aI72
aI0
aF0.011493921279907227
aa(lp2357
S'22:73'
p2358
aI22
aI73
aI0
aF0.011723995208740234
aa(lp2359
S'22:74'
p2360
aI22
aI74
aI0
aF0.011128902435302734
aa(lp2361
S'22:75'
p2362
aI22
aI75
aI0
aF0.011732816696166992
aa(lp2363
S'22:76'
p2364
aI22
aI76
aI0
aF0.012029886245727539
aa(lp2365
S'22:77'
p2366
aI22
aI77
aI0
aF0.01147603988647461
aa(lp2367
S'22:78'
p2368
aI22
aI78
aI0
aF0.012495994567871094
aa(lp2369
S'22:79'
p2370
aI22
aI79
aI0
aF0.012442827224731445
aa(lp2371
S'22:80'
p2372
aI22
aI80
aI0
aF0.012723922729492188
aa(lp2373
S'22:81'
p2374
aI22
aI81
aI0
aF0.01252603530883789
aa(lp2375
S'22:82'
p2376
aI22
aI82
aI0
aF0.012804985046386719
aa(lp2377
S'22:83'
p2378
aI22
aI83
aI0
aF0.012350797653198242
aa(lp2379
S'22:84'
p2380
aI22
aI84
aI0
aF0.013177871704101562
aa(lp2381
S'22:85'
p2382
aI22
aI85
aI0
aF0.01225900650024414
aa(lp2383
S'22:86'
p2384
aI22
aI86
aI0
aF0.014528036117553711
aa(lp2385
S'22:87'
p2386
aI22
aI87
aI0
aF0.012846946716308594
aa(lp2387
S'22:88'
p2388
aI22
aI88
aI0
aF0.012668132781982422
aa(lp2389
S'22:89'
p2390
aI22
aI89
aI0
aF0.014136075973510742
aa(lp2391
S'22:90'
p2392
aI22
aI90
aI0
aF0.01333308219909668
aa(lp2393
S'22:91'
p2394
aI22
aI91
aI0
aF0.014210939407348633
aa(lp2395
S'22:92'
p2396
aI22
aI92
aI0
aF0.01439213752746582
aa(lp2397
S'22:93'
p2398
aI22
aI93
aI0
aF0.013790130615234375
aa(lp2399
S'22:94'
p2400
aI22
aI94
aI0
aF0.013914108276367188
aa(lp2401
S'22:95'
p2402
aI22
aI95
aI0
aF0.013708829879760742
aa(lp2403
S'22:96'
p2404
aI22
aI96
aI0
aF0.014811992645263672
aa(lp2405
S'22:97'
p2406
aI22
aI97
aI0
aF0.01397085189819336
aa(lp2407
S'22:98'
p2408
aI22
aI98
aI0
aF0.014268159866333008
aa(lp2409
S'22:99'
p2410
aI22
aI99
aI0
aF0.015385866165161133
aa(lp2411
S'22:100'
p2412
aI22
aI100
aI0
aF0.01523900032043457
aa(lp2413
S'22:101'
p2414
aI22
aI101
aI0
aF0.014966964721679688
aa(lp2415
S'22:102'
p2416
aI22
aI102
aI0
aF0.015463113784790039
aa(lp2417
S'22:103'
p2418
aI22
aI103
aI0
aF0.016007184982299805
aa(lp2419
S'22:104'
p2420
aI22
aI104
aI0
aF0.015608072280883789
aa(lp2421
S'22:105'
p2422
aI22
aI105
aI0
aF0.014963865280151367
aa(lp2423
S'22:106'
p2424
aI22
aI106
aI0
aF0.016080856323242188
aa(lp2425
S'22:107'
p2426
aI22
aI107
aI0
aF0.015919923782348633
aa(lp2427
S'22:108'
p2428
aI22
aI108
aI0
aF0.016430139541625977
aa(lp2429
S'22:109'
p2430
aI22
aI109
aI0
aF0.01546788215637207
aa(lp2431
S'23:5'
p2432
aI23
aI5
aI0
aI-1
aa(lp2433
S'23:6'
p2434
aI23
aI6
aI0
aI-1
aa(lp2435
S'23:7'
p2436
aI23
aI7
aI0
aI-1
aa(lp2437
S'23:8'
p2438
aI23
aI8
aI0
aI-1
aa(lp2439
S'23:9'
p2440
aI23
aI9
aI0
aI-1
aa(lp2441
S'23:10'
p2442
aI23
aI10
aI0
aI-1
aa(lp2443
S'23:11'
p2444
aI23
aI11
aI0
aI-1
aa(lp2445
S'23:12'
p2446
aI23
aI12
aI0
aI-1
aa(lp2447
S'23:13'
p2448
aI23
aI13
aI0
aI-1
aa(lp2449
S'23:14'
p2450
aI23
aI14
aI0
aI-1
aa(lp2451
S'23:15'
p2452
aI23
aI15
aI0
aI-1
aa(lp2453
S'23:16'
p2454
aI23
aI16
aI0
aI-1
aa(lp2455
S'23:17'
p2456
aI23
aI17
aI0
aI-1
aa(lp2457
S'23:18'
p2458
aI23
aI18
aI0
aI-1
aa(lp2459
S'23:19'
p2460
aI23
aI19
aI0
aF0.004551887512207031
aa(lp2461
S'23:20'
p2462
aI23
aI20
aI0
aF0.0062749385833740234
aa(lp2463
S'23:21'
p2464
aI23
aI21
aI0
aF0.007387876510620117
aa(lp2465
S'23:22'
p2466
aI23
aI22
aI0
aF0.007424831390380859
aa(lp2467
S'23:23'
p2468
aI23
aI23
aI0
aF0.006206989288330078
aa(lp2469
S'23:24'
p2470
aI23
aI24
aI0
aF0.009001970291137695
aa(lp2471
S'23:25'
p2472
aI23
aI25
aI0
aF0.0077669620513916016
aa(lp2473
S'23:26'
p2474
aI23
aI26
aI0
aF0.010102033615112305
aa(lp2475
S'23:27'
p2476
aI23
aI27
aI0
aF0.007986068725585938
aa(lp2477
S'23:28'
p2478
aI23
aI28
aI0
aF0.00804281234741211
aa(lp2479
S'23:29'
p2480
aI23
aI29
aI0
aF0.0069658756256103516
aa(lp2481
S'23:30'
p2482
aI23
aI30
aI0
aF0.008580923080444336
aa(lp2483
S'23:31'
p2484
aI23
aI31
aI0
aF0.007666826248168945
aa(lp2485
S'23:32'
p2486
aI23
aI32
aI0
aF0.010312080383300781
aa(lp2487
S'23:33'
p2488
aI23
aI33
aI0
aF0.007841825485229492
aa(lp2489
S'23:34'
p2490
aI23
aI34
aI0
aF0.008227109909057617
aa(lp2491
S'23:35'
p2492
aI23
aI35
aI0
aF0.008204936981201172
aa(lp2493
S'23:36'
p2494
aI23
aI36
aI0
aF0.009325027465820312
aa(lp2495
S'23:37'
p2496
aI23
aI37
aI0
aF0.017670869827270508
aa(lp2497
S'23:38'
p2498
aI23
aI38
aI0
aF0.009629011154174805
aa(lp2499
S'23:39'
p2500
aI23
aI39
aI0
aF0.008172988891601562
aa(lp2501
S'23:40'
p2502
aI23
aI40
aI0
aF0.00882101058959961
aa(lp2503
S'23:41'
p2504
aI23
aI41
aI0
aF0.009295940399169922
aa(lp2505
S'23:42'
p2506
aI23
aI42
aI0
aF0.01066899299621582
aa(lp2507
S'23:43'
p2508
aI23
aI43
aI0
aF0.011288166046142578
aa(lp2509
S'23:44'
p2510
aI23
aI44
aI0
aF0.010202884674072266
aa(lp2511
S'23:45'
p2512
aI23
aI45
aI0
aF0.010778188705444336
aa(lp2513
S'23:46'
p2514
aI23
aI46
aI0
aF0.010822057723999023
aa(lp2515
S'23:47'
p2516
aI23
aI47
aI0
aF0.010024070739746094
aa(lp2517
S'23:48'
p2518
aI23
aI48
aI0
aF0.009606122970581055
aa(lp2519
S'23:49'
p2520
aI23
aI49
aI0
aF0.00940394401550293
aa(lp2521
S'23:50'
p2522
aI23
aI50
aI0
aF0.010462045669555664
aa(lp2523
S'23:51'
p2524
aI23
aI51
aI0
aF0.009521961212158203
aa(lp2525
S'23:52'
p2526
aI23
aI52
aI0
aF0.010107994079589844
aa(lp2527
S'23:53'
p2528
aI23
aI53
aI0
aF0.010843038558959961
aa(lp2529
S'23:54'
p2530
aI23
aI54
aI0
aF0.010803937911987305
aa(lp2531
S'23:55'
p2532
aI23
aI55
aI0
aF0.01187586784362793
aa(lp2533
S'23:56'
p2534
aI23
aI56
aI0
aF0.011451005935668945
aa(lp2535
S'23:57'
p2536
aI23
aI57
aI0
aF0.010205984115600586
aa(lp2537
S'23:58'
p2538
aI23
aI58
aI0
aF0.010627031326293945
aa(lp2539
S'23:59'
p2540
aI23
aI59
aI0
aF0.01070094108581543
aa(lp2541
S'23:60'
p2542
aI23
aI60
aI0
aF0.011324167251586914
aa(lp2543
S'23:61'
p2544
aI23
aI61
aI0
aF0.011799812316894531
aa(lp2545
S'23:62'
p2546
aI23
aI62
aI0
aF0.010671854019165039
aa(lp2547
S'23:63'
p2548
aI23
aI63
aI0
aF0.011013031005859375
aa(lp2549
S'23:64'
p2550
aI23
aI64
aI0
aF0.011687040328979492
aa(lp2551
S'23:65'
p2552
aI23
aI65
aI0
aF0.011111974716186523
aa(lp2553
S'23:66'
p2554
aI23
aI66
aI0
aF0.011553049087524414
aa(lp2555
S'23:67'
p2556
aI23
aI67
aI0
aF0.011749029159545898
aa(lp2557
S'23:68'
p2558
aI23
aI68
aI0
aF0.011338949203491211
aa(lp2559
S'23:69'
p2560
aI23
aI69
aI0
aF0.011509180068969727
aa(lp2561
S'23:70'
p2562
aI23
aI70
aI0
aF0.011903047561645508
aa(lp2563
S'23:71'
p2564
aI23
aI71
aI0
aF0.011442899703979492
aa(lp2565
S'23:72'
p2566
aI23
aI72
aI0
aF0.012014150619506836
aa(lp2567
S'23:73'
p2568
aI23
aI73
aI0
aF0.012390851974487305
aa(lp2569
S'23:74'
p2570
aI23
aI74
aI0
aF0.012306928634643555
aa(lp2571
S'23:75'
p2572
aI23
aI75
aI0
aF0.012681961059570312
aa(lp2573
S'23:76'
p2574
aI23
aI76
aI0
aF0.012475013732910156
aa(lp2575
S'23:77'
p2576
aI23
aI77
aI0
aF0.01316213607788086
aa(lp2577
S'23:78'
p2578
aI23
aI78
aI0
aF0.012850046157836914
aa(lp2579
S'23:79'
p2580
aI23
aI79
aI0
aF0.013695955276489258
aa(lp2581
S'23:80'
p2582
aI23
aI80
aI0
aF0.013438940048217773
aa(lp2583
S'23:81'
p2584
aI23
aI81
aI0
aF0.012820005416870117
aa(lp2585
S'23:82'
p2586
aI23
aI82
aI0
aF0.01308298110961914
aa(lp2587
S'23:83'
p2588
aI23
aI83
aI0
aF0.013576030731201172
aa(lp2589
S'23:84'
p2590
aI23
aI84
aI0
aF0.013691186904907227
aa(lp2591
S'23:85'
p2592
aI23
aI85
aI0
aF0.01373291015625
aa(lp2593
S'23:86'
p2594
aI23
aI86
aI0
aF0.01544189453125
aa(lp2595
S'23:87'
p2596
aI23
aI87
aI0
aF0.014249086380004883
aa(lp2597
S'23:88'
p2598
aI23
aI88
aI0
aF0.014453887939453125
aa(lp2599
S'23:89'
p2600
aI23
aI89
aI0
aF0.014407873153686523
aa(lp2601
S'23:90'
p2602
aI23
aI90
aI0
aF0.01367807388305664
aa(lp2603
S'23:91'
p2604
aI23
aI91
aI0
aF0.014914989471435547
aa(lp2605
S'23:92'
p2606
aI23
aI92
aI0
aF0.014095067977905273
aa(lp2607
S'23:93'
p2608
aI23
aI93
aI0
aF0.01574087142944336
aa(lp2609
S'23:94'
p2610
aI23
aI94
aI0
aF0.015790939331054688
aa(lp2611
S'23:95'
p2612
aI23
aI95
aI0
aF0.015755891799926758
aa(lp2613
S'23:96'
p2614
aI23
aI96
aI0
aF0.0159761905670166
aa(lp2615
S'23:97'
p2616
aI23
aI97
aI0
aF0.01618504524230957
aa(lp2617
S'23:98'
p2618
aI23
aI98
aI0
aF0.015710830688476562
aa(lp2619
S'23:99'
p2620
aI23
aI99
aI0
aF0.015347957611083984
aa(lp2621
S'23:100'
p2622
aI23
aI100
aI0
aF0.015730857849121094
aa(lp2623
S'23:101'
p2624
aI23
aI101
aI0
aF0.015780925750732422
aa(lp2625
S'23:102'
p2626
aI23
aI102
aI0
aF0.015671968460083008
aa(lp2627
S'23:103'
p2628
aI23
aI103
aI0
aF0.016865015029907227
aa(lp2629
S'23:104'
p2630
aI23
aI104
aI0
aF0.016918182373046875
aa(lp2631
S'23:105'
p2632
aI23
aI105
aI0
aF0.015746116638183594
aa(lp2633
S'23:106'
p2634
aI23
aI106
aI0
aF0.016824007034301758
aa(lp2635
S'23:107'
p2636
aI23
aI107
aI0
aF0.016424894332885742
aa(lp2637
S'23:108'
p2638
aI23
aI108
aI0
aF0.016600847244262695
aa(lp2639
S'23:109'
p2640
aI23
aI109
aI0
aF0.01662898063659668
aa(lp2641
S'23:110'
p2642
aI23
aI110
aI0
aF0.015974044799804688
aa(lp2643
S'23:111'
p2644
aI23
aI111
aI0
aF0.01724696159362793
aa(lp2645
S'23:112'
p2646
aI23
aI112
aI0
aF0.016332149505615234
aa(lp2647
S'23:113'
p2648
aI23
aI113
aI0
aF0.017729997634887695
aa(lp2649
S'23:114'
p2650
aI23
aI114
aI0
aF0.017184972763061523
aa(lp2651
S'24:5'
p2652
aI24
aI5
aI0
aI-1
aa(lp2653
S'24:6'
p2654
aI24
aI6
aI0
aI-1
aa(lp2655
S'24:7'
p2656
aI24
aI7
aI0
aI-1
aa(lp2657
S'24:8'
p2658
aI24
aI8
aI0
aI-1
aa(lp2659
S'24:9'
p2660
aI24
aI9
aI0
aI-1
aa(lp2661
S'24:10'
p2662
aI24
aI10
aI0
aI-1
aa(lp2663
S'24:11'
p2664
aI24
aI11
aI0
aI-1
aa(lp2665
S'24:12'
p2666
aI24
aI12
aI0
aI-1
aa(lp2667
S'24:13'
p2668
aI24
aI13
aI0
aI-1
aa(lp2669
S'24:14'
p2670
aI24
aI14
aI0
aI-1
aa(lp2671
S'24:15'
p2672
aI24
aI15
aI0
aI-1
aa(lp2673
S'24:16'
p2674
aI24
aI16
aI0
aI-1
aa(lp2675
S'24:17'
p2676
aI24
aI17
aI0
aI-1
aa(lp2677
S'24:18'
p2678
aI24
aI18
aI0
aI-1
aa(lp2679
S'24:19'
p2680
aI24
aI19
aI0
aI-1
aa(lp2681
S'24:20'
p2682
aI24
aI20
aI0
aI-1
aa(lp2683
S'24:21'
p2684
aI24
aI21
aI0
aI-1
aa(lp2685
S'24:22'
p2686
aI24
aI22
aI0
aF0.008933067321777344
aa(lp2687
S'24:23'
p2688
aI24
aI23
aI0
aF0.007070779800415039
aa(lp2689
S'24:24'
p2690
aI24
aI24
aI0
aF0.00852513313293457
aa(lp2691
S'24:25'
p2692
aI24
aI25
aI0
aF0.008192062377929688
aa(lp2693
S'24:26'
p2694
aI24
aI26
aI0
aF0.010939836502075195
aa(lp2695
S'24:27'
p2696
aI24
aI27
aI0
aF0.01139688491821289
aa(lp2697
S'24:28'
p2698
aI24
aI28
aI0
aF0.007794857025146484
aa(lp2699
S'24:29'
p2700
aI24
aI29
aI0
aF0.009227991104125977
aa(lp2701
S'24:30'
p2702
aI24
aI30
aI0
aF0.0107879638671875
aa(lp2703
S'24:31'
p2704
aI24
aI31
aI0
aF0.0085601806640625
aa(lp2705
S'24:32'
p2706
aI24
aI32
aI0
aF0.007923126220703125
aa(lp2707
S'24:33'
p2708
aI24
aI33
aI0
aF0.009552955627441406
aa(lp2709
S'24:34'
p2710
aI24
aI34
aI0
aF0.009404897689819336
aa(lp2711
S'24:35'
p2712
aI24
aI35
aI0
aF0.010471105575561523
aa(lp2713
S'24:36'
p2714
aI24
aI36
aI0
aF0.010085821151733398
aa(lp2715
S'24:37'
p2716
aI24
aI37
aI0
aF0.009989023208618164
aa(lp2717
S'24:38'
p2718
aI24
aI38
aI0
aF0.008624792098999023
aa(lp2719
S'24:39'
p2720
aI24
aI39
aI0
aF0.008861064910888672
aa(lp2721
S'24:40'
p2722
aI24
aI40
aI0
aF0.00888204574584961
aa(lp2723
S'24:41'
p2724
aI24
aI41
aI0
aF0.010334968566894531
aa(lp2725
S'24:42'
p2726
aI24
aI42
aI0
aF0.010097026824951172
aa(lp2727
S'24:43'
p2728
aI24
aI43
aI0
aF0.010637998580932617
aa(lp2729
S'24:44'
p2730
aI24
aI44
aI0
aF0.010531902313232422
aa(lp2731
S'24:45'
p2732
aI24
aI45
aI0
aF0.009097099304199219
aa(lp2733
S'24:46'
p2734
aI24
aI46
aI0
aF0.010460138320922852
aa(lp2735
S'24:47'
p2736
aI24
aI47
aI0
aF0.00972890853881836
aa(lp2737
S'24:48'
p2738
aI24
aI48
aI0
aF0.009649038314819336
aa(lp2739
S'24:49'
p2740
aI24
aI49
aI0
aF0.010535001754760742
aa(lp2741
S'24:50'
p2742
aI24
aI50
aI0
aF0.009729146957397461
aa(lp2743
S'24:51'
p2744
aI24
aI51
aI0
aF0.011214971542358398
aa(lp2745
S'24:52'
p2746
aI24
aI52
aI0
aF0.010904073715209961
aa(lp2747
S'24:53'
p2748
aI24
aI53
aI0
aF0.011713027954101562
aa(lp2749
S'24:54'
p2750
aI24
aI54
aI0
aF0.010400056838989258
aa(lp2751
S'24:55'
p2752
aI24
aI55
aI0
aF0.011088132858276367
aa(lp2753
S'24:56'
p2754
aI24
aI56
aI0
aF0.011049985885620117
aa(lp2755
S'24:57'
p2756
aI24
aI57
aI0
aF0.011192083358764648
aa(lp2757
S'24:58'
p2758
aI24
aI58
aI0
aF0.012835025787353516
aa(lp2759
S'24:59'
p2760
aI24
aI59
aI0
aF0.011876821517944336
aa(lp2761
S'24:60'
p2762
aI24
aI60
aI0
aF0.011410951614379883
aa(lp2763
S'24:61'
p2764
aI24
aI61
aI0
aF0.012588024139404297
aa(lp2765
S'24:62'
p2766
aI24
aI62
aI0
aF0.011354207992553711
aa(lp2767
S'24:63'
p2768
aI24
aI63
aI0
aF0.012085914611816406
aa(lp2769
S'24:64'
p2770
aI24
aI64
aI0
aF0.011974096298217773
aa(lp2771
S'24:65'
p2772
aI24
aI65
aI0
aF0.011733055114746094
aa(lp2773
S'24:66'
p2774
aI24
aI66
aI0
aF0.01218414306640625
aa(lp2775
S'24:67'
p2776
aI24
aI67
aI0
aF0.012198925018310547
aa(lp2777
S'24:68'
p2778
aI24
aI68
aI0
aF0.012862920761108398
aa(lp2779
S'24:69'
p2780
aI24
aI69
aI0
aF0.011961936950683594
aa(lp2781
S'24:70'
p2782
aI24
aI70
aI0
aF0.011989831924438477
aa(lp2783
S'24:71'
p2784
aI24
aI71
aI0
aF0.013077974319458008
aa(lp2785
S'24:72'
p2786
aI24
aI72
aI0
aF0.012681961059570312
aa(lp2787
S'24:73'
p2788
aI24
aI73
aI0
aF0.012783050537109375
aa(lp2789
S'24:74'
p2790
aI24
aI74
aI0
aF0.014696836471557617
aa(lp2791
S'24:75'
p2792
aI24
aI75
aI0
aF0.013427019119262695
aa(lp2793
S'24:76'
p2794
aI24
aI76
aI0
aF0.014594078063964844
aa(lp2795
S'24:77'
p2796
aI24
aI77
aI0
aF0.015130996704101562
aa(lp2797
S'24:78'
p2798
aI24
aI78
aI0
aF0.01437997817993164
aa(lp2799
S'24:79'
p2800
aI24
aI79
aI0
aF0.013878107070922852
aa(lp2801
S'24:80'
p2802
aI24
aI80
aI0
aF0.01535797119140625
aa(lp2803
S'24:81'
p2804
aI24
aI81
aI0
aF0.013709068298339844
aa(lp2805
S'24:82'
p2806
aI24
aI82
aI0
aF0.014647960662841797
aa(lp2807
S'24:83'
p2808
aI24
aI83
aI0
aF0.01455998420715332
aa(lp2809
S'24:84'
p2810
aI24
aI84
aI0
aF0.015139102935791016
aa(lp2811
S'24:85'
p2812
aI24
aI85
aI0
aF0.015204906463623047
aa(lp2813
S'24:86'
p2814
aI24
aI86
aI0
aF0.015520095825195312
aa(lp2815
S'24:87'
p2816
aI24
aI87
aI0
aF0.01503300666809082
aa(lp2817
S'24:88'
p2818
aI24
aI88
aI0
aF0.015524864196777344
aa(lp2819
S'24:89'
p2820
aI24
aI89
aI0
aF0.014838933944702148
aa(lp2821
S'24:90'
p2822
aI24
aI90
aI0
aF0.014728069305419922
aa(lp2823
S'24:91'
p2824
aI24
aI91
aI0
aF0.014529943466186523
aa(lp2825
S'24:92'
p2826
aI24
aI92
aI0
aF0.015161991119384766
aa(lp2827
S'24:93'
p2828
aI24
aI93
aI0
aF0.015045881271362305
aa(lp2829
S'24:94'
p2830
aI24
aI94
aI0
aF0.01560211181640625
aa(lp2831
S'24:95'
p2832
aI24
aI95
aI0
aF0.01639389991760254
aa(lp2833
S'24:96'
p2834
aI24
aI96
aI0
aF0.017082929611206055
aa(lp2835
S'24:97'
p2836
aI24
aI97
aI0
aF0.015540122985839844
aa(lp2837
S'24:98'
p2838
aI24
aI98
aI0
aF0.0160980224609375
aa(lp2839
S'24:99'
p2840
aI24
aI99
aI0
aF0.015831947326660156
aa(lp2841
S'24:100'
p2842
aI24
aI100
aI0
aF0.01576399803161621
aa(lp2843
S'24:101'
p2844
aI24
aI101
aI0
aF0.015330076217651367
aa(lp2845
S'24:102'
p2846
aI24
aI102
aI0
aF0.016350984573364258
aa(lp2847
S'24:103'
p2848
aI24
aI103
aI0
aF0.017283916473388672
aa(lp2849
S'24:104'
p2850
aI24
aI104
aI0
aF0.0178830623626709
aa(lp2851
S'24:105'
p2852
aI24
aI105
aI0
aF0.015928030014038086
aa(lp2853
S'24:106'
p2854
aI24
aI106
aI0
aF0.017271041870117188
aa(lp2855
S'24:107'
p2856
aI24
aI107
aI0
aF0.016952037811279297
aa(lp2857
S'24:108'
p2858
aI24
aI108
aI0
aF0.01742410659790039
aa(lp2859
S'24:109'
p2860
aI24
aI109
aI0
aF0.01694202423095703
aa(lp2861
S'24:110'
p2862
aI24
aI110
aI0
aF0.017431020736694336
aa(lp2863
S'24:111'
p2864
aI24
aI111
aI0
aF0.018922090530395508
aa(lp2865
S'24:112'
p2866
aI24
aI112
aI0
aF0.01914191246032715
aa(lp2867
S'24:113'
p2868
aI24
aI113
aI0
aF0.018681049346923828
aa(lp2869
S'24:114'
p2870
aI24
aI114
aI0
aF0.017303943634033203
aa(lp2871
S'24:115'
p2872
aI24
aI115
aI0
aF0.01780104637145996
aa(lp2873
S'24:116'
p2874
aI24
aI116
aI0
aF0.01918482780456543
aa(lp2875
S'24:117'
p2876
aI24
aI117
aI0
aF0.01794600486755371
aa(lp2877
S'24:118'
p2878
aI24
aI118
aI0
aF0.01839900016784668
aa(lp2879
S'24:119'
p2880
aI24
aI119
aI0
aF0.018765926361083984
aa(lp2881
S'25:5'
p2882
aI25
aI5
aI0
aI-1
aa(lp2883
S'25:6'
p2884
aI25
aI6
aI0
aI-1
aa(lp2885
S'25:7'
p2886
aI25
aI7
aI0
aI-1
aa(lp2887
S'25:8'
p2888
aI25
aI8
aI0
aI-1
aa(lp2889
S'25:9'
p2890
aI25
aI9
aI0
aI-1
aa(lp2891
S'25:10'
p2892
aI25
aI10
aI0
aI-1
aa(lp2893
S'25:11'
p2894
aI25
aI11
aI0
aI-1
aa(lp2895
S'25:12'
p2896
aI25
aI12
aI0
aI-1
aa(lp2897
S'25:13'
p2898
aI25
aI13
aI0
aI-1
aa(lp2899
S'25:14'
p2900
aI25
aI14
aI0
aI-1
aa(lp2901
S'25:15'
p2902
aI25
aI15
aI0
aI-1
aa(lp2903
S'25:16'
p2904
aI25
aI16
aI0
aI-1
aa(lp2905
S'25:17'
p2906
aI25
aI17
aI0
aI-1
aa(lp2907
S'25:18'
p2908
aI25
aI18
aI0
aI-1
aa(lp2909
S'25:19'
p2910
aI25
aI19
aI0
aI-1
aa(lp2911
S'25:20'
p2912
aI25
aI20
aI0
aI-1
aa(lp2913
S'25:21'
p2914
aI25
aI21
aI0
aF0.010968923568725586
aa(lp2915
S'25:22'
p2916
aI25
aI22
aI0
aF0.007623910903930664
aa(lp2917
S'25:23'
p2918
aI25
aI23
aI0
aF0.01050114631652832
aa(lp2919
S'25:24'
p2920
aI25
aI24
aI0
aF0.008504867553710938
aa(lp2921
S'25:25'
p2922
aI25
aI25
aI0
aF0.007998943328857422
aa(lp2923
S'25:26'
p2924
aI25
aI26
aI0
aF0.009011983871459961
aa(lp2925
S'25:27'
p2926
aI25
aI27
aI0
aF0.01014089584350586
aa(lp2927
S'25:28'
p2928
aI25
aI28
aI0
aF0.010961055755615234
aa(lp2929
S'25:29'
p2930
aI25
aI29
aI0
aF0.008913993835449219
aa(lp2931
S'25:30'
p2932
aI25
aI30
aI0
aF0.008625030517578125
aa(lp2933
S'25:31'
p2934
aI25
aI31
aI0
aF0.011710166931152344
aa(lp2935
S'25:32'
p2936
aI25
aI32
aI0
aF0.009701967239379883
aa(lp2937
S'25:33'
p2938
aI25
aI33
aI0
aF0.010191917419433594
aa(lp2939
S'25:34'
p2940
aI25
aI34
aI0
aF0.010957956314086914
aa(lp2941
S'25:35'
p2942
aI25
aI35
aI0
aF0.010747909545898438
aa(lp2943
S'25:36'
p2944
aI25
aI36
aI0
aF0.010635137557983398
aa(lp2945
S'25:37'
p2946
aI25
aI37
aI0
aF0.010683059692382812
aa(lp2947
S'25:38'
p2948
aI25
aI38
aI0
aF0.010314226150512695
aa(lp2949
S'25:39'
p2950
aI25
aI39
aI0
aF0.011776924133300781
aa(lp2951
S'25:40'
p2952
aI25
aI40
aI0
aF0.010797977447509766
aa(lp2953
S'25:41'
p2954
aI25
aI41
aI0
aF0.010209083557128906
aa(lp2955
S'25:42'
p2956
aI25
aI42
aI0
aF0.012391090393066406
aa(lp2957
S'25:43'
p2958
aI25
aI43
aI0
aF0.010723114013671875
aa(lp2959
S'25:44'
p2960
aI25
aI44
aI0
aF0.008671045303344727
aa(lp2961
S'25:45'
p2962
aI25
aI45
aI0
aF0.011797904968261719
aa(lp2963
S'25:46'
p2964
aI25
aI46
aI0
aF0.010248899459838867
aa(lp2965
S'25:47'
p2966
aI25
aI47
aI0
aF0.012159109115600586
aa(lp2967
S'25:48'
p2968
aI25
aI48
aI0
aF0.011497020721435547
aa(lp2969
S'25:49'
p2970
aI25
aI49
aI0
aF0.009949922561645508
aa(lp2971
S'25:50'
p2972
aI25
aI50
aI0
aF0.010856151580810547
aa(lp2973
S'25:51'
p2974
aI25
aI51
aI0
aF0.012844085693359375
aa(lp2975
S'25:52'
p2976
aI25
aI52
aI0
aF0.010564088821411133
aa(lp2977
S'25:53'
p2978
aI25
aI53
aI0
aF0.011898994445800781
aa(lp2979
S'25:54'
p2980
aI25
aI54
aI0
aF0.01111292839050293
aa(lp2981
S'25:55'
p2982
aI25
aI55
aI0
aF0.012037038803100586
aa(lp2983
S'25:56'
p2984
aI25
aI56
aI0
aF0.011281967163085938
aa(lp2985
S'25:57'
p2986
aI25
aI57
aI0
aF0.010826826095581055
aa(lp2987
S'25:58'
p2988
aI25
aI58
aI0
aF0.01083517074584961
aa(lp2989
S'25:59'
p2990
aI25
aI59
aI0
aF0.012048006057739258
aa(lp2991
S'25:60'
p2992
aI25
aI60
aI0
aF0.01338505744934082
aa(lp2993
S'25:61'
p2994
aI25
aI61
aI0
aF0.01157999038696289
aa(lp2995
S'25:62'
p2996
aI25
aI62
aI0
aF0.011912107467651367
aa(lp2997
S'25:63'
p2998
aI25
aI63
aI0
aF0.011751890182495117
aa(lp2999
S'25:64'
p3000
aI25
aI64
aI0
aF0.014068126678466797
aa(lp3001
S'25:65'
p3002
aI25
aI65
aI0
aF0.011998176574707031
aa(lp3003
S'25:66'
p3004
aI25
aI66
aI0
aF0.012238025665283203
aa(lp3005
S'25:67'
p3006
aI25
aI67
aI0
aF0.012907028198242188
aa(lp3007
S'25:68'
p3008
aI25
aI68
aI0
aF0.012166023254394531
aa(lp3009
S'25:69'
p3010
aI25
aI69
aI0
aF0.013209104537963867
aa(lp3011
S'25:70'
p3012
aI25
aI70
aI0
aF0.013504981994628906
aa(lp3013
S'25:71'
p3014
aI25
aI71
aI0
aF0.012573003768920898
aa(lp3015
S'25:72'
p3016
aI25
aI72
aI0
aF0.013120174407958984
aa(lp3017
S'25:73'
p3018
aI25
aI73
aI0
aF0.012588977813720703
aa(lp3019
S'25:74'
p3020
aI25
aI74
aI0
aF0.013924837112426758
aa(lp3021
S'25:75'
p3022
aI25
aI75
aI0
aF0.013952016830444336
aa(lp3023
S'25:76'
p3024
aI25
aI76
aI0
aF0.014765024185180664
aa(lp3025
S'25:77'
p3026
aI25
aI77
aI0
aF0.013681173324584961
aa(lp3027
S'25:78'
p3028
aI25
aI78
aI0
aF0.01464700698852539
aa(lp3029
S'25:79'
p3030
aI25
aI79
aI0
aF0.014269828796386719
aa(lp3031
S'25:80'
p3032
aI25
aI80
aI0
aF0.013635873794555664
aa(lp3033
S'25:81'
p3034
aI25
aI81
aI0
aF0.014534950256347656
aa(lp3035
S'25:82'
p3036
aI25
aI82
aI0
aF0.014313936233520508
aa(lp3037
S'25:83'
p3038
aI25
aI83
aI0
aF0.014798879623413086
aa(lp3039
S'25:84'
p3040
aI25
aI84
aI0
aF0.014960050582885742
aa(lp3041
S'25:85'
p3042
aI25
aI85
aI0
aF0.015127897262573242
aa(lp3043
S'25:86'
p3044
aI25
aI86
aI0
aF0.014744043350219727
aa(lp3045
S'25:87'
p3046
aI25
aI87
aI0
aF0.015434980392456055
aa(lp3047
S'25:88'
p3048
aI25
aI88
aI0
aF0.015744924545288086
aa(lp3049
S'25:89'
p3050
aI25
aI89
aI0
aF0.01619100570678711
aa(lp3051
S'25:90'
p3052
aI25
aI90
aI0
aF0.01689600944519043
aa(lp3053
S'25:91'
p3054
aI25
aI91
aI0
aF0.016777992248535156
aa(lp3055
S'25:92'
p3056
aI25
aI92
aI0
aF0.015173912048339844
aa(lp3057
S'25:93'
p3058
aI25
aI93
aI0
aF0.01598215103149414
aa(lp3059
S'25:94'
p3060
aI25
aI94
aI0
aF0.0152130126953125
aa(lp3061
S'25:95'
p3062
aI25
aI95
aI0
aF0.016674041748046875
aa(lp3063
S'25:96'
p3064
aI25
aI96
aI0
aF0.0156400203704834
aa(lp3065
S'25:97'
p3066
aI25
aI97
aI0
aF0.01645493507385254
aa(lp3067
S'25:98'
p3068
aI25
aI98
aI0
aF0.01613306999206543
aa(lp3069
S'25:99'
p3070
aI25
aI99
aI0
aF0.017136812210083008
aa(lp3071
S'25:100'
p3072
aI25
aI100
aI0
aF0.01673102378845215
aa(lp3073
S'25:101'
p3074
aI25
aI101
aI0
aF0.016925811767578125
aa(lp3075
S'25:102'
p3076
aI25
aI102
aI0
aF0.01714301109313965
aa(lp3077
S'25:103'
p3078
aI25
aI103
aI0
aF0.01721978187561035
aa(lp3079
S'25:104'
p3080
aI25
aI104
aI0
aF0.01841902732849121
aa(lp3081
S'25:105'
p3082
aI25
aI105
aI0
aF0.017087936401367188
aa(lp3083
S'25:106'
p3084
aI25
aI106
aI0
aF0.017885923385620117
aa(lp3085
S'25:107'
p3086
aI25
aI107
aI0
aF0.017759084701538086
aa(lp3087
S'25:108'
p3088
aI25
aI108
aI0
aF0.01811695098876953
aa(lp3089
S'25:109'
p3090
aI25
aI109
aI0
aF0.016911029815673828
aa(lp3091
S'25:110'
p3092
aI25
aI110
aI0
aF0.01835489273071289
aa(lp3093
S'25:111'
p3094
aI25
aI111
aI0
aF0.018693923950195312
aa(lp3095
S'25:112'
p3096
aI25
aI112
aI0
aF0.018119096755981445
aa(lp3097
S'25:113'
p3098
aI25
aI113
aI0
aF0.02158498764038086
aa(lp3099
S'25:114'
p3100
aI25
aI114
aI0
aF0.01919698715209961
aa(lp3101
S'25:115'
p3102
aI25
aI115
aI0
aF0.020576000213623047
aa(lp3103
S'25:116'
p3104
aI25
aI116
aI0
aF0.020199060440063477
aa(lp3105
S'25:117'
p3106
aI25
aI117
aI0
aF0.020814895629882812
aa(lp3107
S'25:118'
p3108
aI25
aI118
aI0
aF0.020210981369018555
aa(lp3109
S'25:119'
p3110
aI25
aI119
aI0
aF0.020810842514038086
aa(lp3111
S'25:120'
p3112
aI25
aI120
aI0
aF0.020581960678100586
aa(lp3113
S'25:121'
p3114
aI25
aI121
aI0
aF0.020925045013427734
aa(lp3115
S'25:122'
p3116
aI25
aI122
aI0
aF0.0205838680267334
aa(lp3117
S'25:123'
p3118
aI25
aI123
aI0
aF0.020696163177490234
aa(lp3119
S'25:124'
p3120
aI25
aI124
aI0
aF0.02073812484741211
aa(lp3121
S'26:5'
p3122
aI26
aI5
aI0
aI-1
aa(lp3123
S'26:6'
p3124
aI26
aI6
aI0
aI-1
aa(lp3125
S'26:7'
p3126
aI26
aI7
aI0
aI-1
aa(lp3127
S'26:8'
p3128
aI26
aI8
aI0
aI-1
aa(lp3129
S'26:9'
p3130
aI26
aI9
aI0
aI-1
aa(lp3131
S'26:10'
p3132
aI26
aI10
aI0
aI-1
aa(lp3133
S'26:11'
p3134
aI26
aI11
aI0
aI-1
aa(lp3135
S'26:12'
p3136
aI26
aI12
aI0
aI-1
aa(lp3137
S'26:13'
p3138
aI26
aI13
aI0
aI-1
aa(lp3139
S'26:14'
p3140
aI26
aI14
aI0
aI-1
aa(lp3141
S'26:15'
p3142
aI26
aI15
aI0
aI-1
aa(lp3143
S'26:16'
p3144
aI26
aI16
aI0
aI-1
aa(lp3145
S'26:17'
p3146
aI26
aI17
aI0
aI-1
aa(lp3147
S'26:18'
p3148
aI26
aI18
aI0
aI-1
aa(lp3149
S'26:19'
p3150
aI26
aI19
aI0
aI-1
aa(lp3151
S'26:20'
p3152
aI26
aI20
aI0
aF0.006871938705444336
aa(lp3153
S'26:21'
p3154
aI26
aI21
aI0
aI-1
aa(lp3155
S'26:22'
p3156
aI26
aI22
aI0
aI-1
aa(lp3157
S'26:23'
p3158
aI26
aI23
aI0
aF0.010591983795166016
aa(lp3159
S'26:24'
p3160
aI26
aI24
aI0
aF0.009376049041748047
aa(lp3161
S'26:25'
p3162
aI26
aI25
aI0
aF0.008823871612548828
aa(lp3163
S'26:26'
p3164
aI26
aI26
aI0
aF0.010410070419311523
aa(lp3165
S'26:27'
p3166
aI26
aI27
aI0
aF0.009725093841552734
aa(lp3167
S'26:28'
p3168
aI26
aI28
aI0
aF0.008833885192871094
aa(lp3169
S'26:29'
p3170
aI26
aI29
aI0
aF0.011567115783691406
aa(lp3171
S'26:30'
p3172
aI26
aI30
aI0
aF0.009232044219970703
aa(lp3173
S'26:31'
p3174
aI26
aI31
aI0
aF0.010756969451904297
aa(lp3175
S'26:32'
p3176
aI26
aI32
aI0
aF0.010420083999633789
aa(lp3177
S'26:33'
p3178
aI26
aI33
aI0
aF0.009363889694213867
aa(lp3179
S'26:34'
p3180
aI26
aI34
aI0
aF0.008928060531616211
aa(lp3181
S'26:35'
p3182
aI26
aI35
aI0
aF0.010648965835571289
aa(lp3183
S'26:36'
p3184
aI26
aI36
aI0
aF0.011312007904052734
aa(lp3185
S'26:37'
p3186
aI26
aI37
aI0
aF0.011303901672363281
aa(lp3187
S'26:38'
p3188
aI26
aI38
aI0
aF0.010306119918823242
aa(lp3189
S'26:39'
p3190
aI26
aI39
aI0
aF0.00976705551147461
aa(lp3191
S'26:40'
p3192
aI26
aI40
aI0
aF0.011021137237548828
aa(lp3193
S'26:41'
p3194
aI26
aI41
aI0
aF0.011113882064819336
aa(lp3195
S'26:42'
p3196
aI26
aI42
aI0
aF0.011517763137817383
aa(lp3197
S'26:43'
p3198
aI26
aI43
aI0
aF0.011863946914672852
aa(lp3199
S'26:44'
p3200
aI26
aI44
aI0
aF0.012379884719848633
aa(lp3201
S'26:45'
p3202
aI26
aI45
aI0
aF0.011340141296386719
aa(lp3203
S'26:46'
p3204
aI26
aI46
aI0
aF0.010087966918945312
aa(lp3205
S'26:47'
p3206
aI26
aI47
aI0
aF0.01250600814819336
aa(lp3207
S'26:48'
p3208
aI26
aI48
aI0
aF0.012368917465209961
aa(lp3209
S'26:49'
p3210
aI26
aI49
aI0
aF0.010597944259643555
aa(lp3211
S'26:50'
p3212
aI26
aI50
aI0
aF0.012376070022583008
aa(lp3213
S'26:51'
p3214
aI26
aI51
aI0
aF0.01271820068359375
aa(lp3215
S'26:52'
p3216
aI26
aI52
aI0
aF0.01488184928894043
aa(lp3217
S'26:53'
p3218
aI26
aI53
aI0
aF0.011034965515136719
aa(lp3219
S'26:54'
p3220
aI26
aI54
aI0
aF0.013349056243896484
aa(lp3221
S'26:55'
p3222
aI26
aI55
aI0
aF0.012914896011352539
aa(lp3223
S'26:56'
p3224
aI26
aI56
aI0
aF0.01219797134399414
aa(lp3225
S'26:57'
p3226
aI26
aI57
aI0
aF0.012307882308959961
aa(lp3227
S'26:58'
p3228
aI26
aI58
aI0
aF0.012012004852294922
aa(lp3229
S'26:59'
p3230
aI26
aI59
aI0
aF0.013862848281860352
aa(lp3231
S'26:60'
p3232
aI26
aI60
aI0
aF0.014188051223754883
aa(lp3233
S'26:61'
p3234
aI26
aI61
aI0
aF0.01441192626953125
aa(lp3235
S'26:62'
p3236
aI26
aI62
aI0
aF0.012420177459716797
aa(lp3237
S'26:63'
p3238
aI26
aI63
aI0
aF0.014425039291381836
aa(lp3239
S'26:64'
p3240
aI26
aI64
aI0
aF0.013149023056030273
aa(lp3241
S'26:65'
p3242
aI26
aI65
aI0
aF0.012958049774169922
aa(lp3243
S'26:66'
p3244
aI26
aI66
aI0
aF0.013759851455688477
aa(lp3245
S'26:67'
p3246
aI26
aI67
aI0
aF0.013303041458129883
aa(lp3247
S'26:68'
p3248
aI26
aI68
aI0
aF0.013399124145507812
aa(lp3249
S'26:69'
p3250
aI26
aI69
aI0
aF0.01417398452758789
aa(lp3251
S'26:70'
p3252
aI26
aI70
aI0
aF0.013397932052612305
aa(lp3253
S'26:71'
p3254
aI26
aI71
aI0
aF0.014654159545898438
aa(lp3255
S'26:72'
p3256
aI26
aI72
aI0
aF0.013817071914672852
aa(lp3257
S'26:73'
p3258
aI26
aI73
aI0
aF0.015114068984985352
aa(lp3259
S'26:74'
p3260
aI26
aI74
aI0
aF0.013842105865478516
aa(lp3261
S'26:75'
p3262
aI26
aI75
aI0
aF0.014917850494384766
aa(lp3263
S'26:76'
p3264
aI26
aI76
aI0
aF0.014545917510986328
aa(lp3265
S'26:77'
p3266
aI26
aI77
aI0
aF0.014821052551269531
aa(lp3267
S'26:78'
p3268
aI26
aI78
aI0
aF0.015408992767333984
aa(lp3269
S'26:79'
p3270
aI26
aI79
aI0
aF0.014758110046386719
aa(lp3271
S'26:80'
p3272
aI26
aI80
aI0
aF0.016360998153686523
aa(lp3273
S'26:81'
p3274
aI26
aI81
aI0
aF0.01563882827758789
aa(lp3275
S'26:82'
p3276
aI26
aI82
aI0
aF0.015887975692749023
aa(lp3277
S'26:83'
p3278
aI26
aI83
aI0
aF0.01623702049255371
aa(lp3279
S'26:84'
p3280
aI26
aI84
aI0
aF0.015991926193237305
aa(lp3281
S'26:85'
p3282
aI26
aI85
aI0
aF0.01577281951904297
aa(lp3283
S'26:86'
p3284
aI26
aI86
aI0
aF0.01683497428894043
aa(lp3285
S'26:87'
p3286
aI26
aI87
aI0
aF0.01681208610534668
aa(lp3287
S'26:88'
p3288
aI26
aI88
aI0
aF0.016216039657592773
aa(lp3289
S'26:89'
p3290
aI26
aI89
aI0
aF0.01762986183166504
aa(lp3291
S'26:90'
p3292
aI26
aI90
aI0
aF0.016243934631347656
aa(lp3293
S'26:91'
p3294
aI26
aI91
aI0
aF0.01728510856628418
aa(lp3295
S'26:92'
p3296
aI26
aI92
aI0
aF0.017091989517211914
aa(lp3297
S'26:93'
p3298
aI26
aI93
aI0
aF0.01718616485595703
aa(lp3299
S'26:94'
p3300
aI26
aI94
aI0
aF0.01689314842224121
aa(lp3301
S'26:95'
p3302
aI26
aI95
aI0
aF0.018218994140625
aa(lp3303
S'26:96'
p3304
aI26
aI96
aI0
aF0.016978979110717773
aa(lp3305
S'26:97'
p3306
aI26
aI97
aI0
aF0.018931865692138672
aa(lp3307
S'26:98'
p3308
aI26
aI98
aI0
aF0.0189669132232666
aa(lp3309
S'26:99'
p3310
aI26
aI99
aI0
aF0.018175840377807617
aa(lp3311
S'26:100'
p3312
aI26
aI100
aI0
aF0.019282817840576172
aa(lp3313
S'26:101'
p3314
aI26
aI101
aI0
aF0.018152952194213867
aa(lp3315
S'26:102'
p3316
aI26
aI102
aI0
aF0.018546104431152344
aa(lp3317
S'26:103'
p3318
aI26
aI103
aI0
aF0.018584012985229492
aa(lp3319
S'26:104'
p3320
aI26
aI104
aI0
aF0.018635988235473633
aa(lp3321
S'26:105'
p3322
aI26
aI105
aI0
aF0.018814802169799805
aa(lp3323
S'26:106'
p3324
aI26
aI106
aI0
aF0.017351150512695312
aa(lp3325
S'26:107'
p3326
aI26
aI107
aI0
aF0.019043922424316406
aa(lp3327
S'26:108'
p3328
aI26
aI108
aI0
aF0.019991159439086914
aa(lp3329
S'26:109'
p3330
aI26
aI109
aI0
aF0.018707990646362305
aa(lp3331
S'26:110'
p3332
aI26
aI110
aI0
aF0.019238948822021484
aa(lp3333
S'26:111'
p3334
aI26
aI111
aI0
aF0.019433021545410156
aa(lp3335
S'26:112'
p3336
aI26
aI112
aI0
aF0.02094101905822754
aa(lp3337
S'26:113'
p3338
aI26
aI113
aI0
aF0.01980900764465332
aa(lp3339
S'26:114'
p3340
aI26
aI114
aI0
aF0.020111083984375
aa(lp3341
S'26:115'
p3342
aI26
aI115
aI0
aF0.021636962890625
aa(lp3343
S'26:116'
p3344
aI26
aI116
aI0
aF0.02135491371154785
aa(lp3345
S'26:117'
p3346
aI26
aI117
aI0
aF0.019520998001098633
aa(lp3347
S'26:118'
p3348
aI26
aI118
aI0
aF0.020766019821166992
aa(lp3349
S'26:119'
p3350
aI26
aI119
aI0
aF0.022015810012817383
aa(lp3351
S'26:120'
p3352
aI26
aI120
aI0
aF0.019810914993286133
aa(lp3353
S'26:121'
p3354
aI26
aI121
aI0
aF0.020827054977416992
aa(lp3355
S'26:122'
p3356
aI26
aI122
aI0
aF0.021748781204223633
aa(lp3357
S'26:123'
p3358
aI26
aI123
aI0
aF0.021240949630737305
aa(lp3359
S'26:124'
p3360
aI26
aI124
aI0
aF0.022079944610595703
aa(lp3361
S'26:125'
p3362
aI26
aI125
aI0
aF0.02195906639099121
aa(lp3363
S'26:126'
p3364
aI26
aI126
aI0
aF0.02293992042541504
aa(lp3365
S'26:127'
p3366
aI26
aI127
aI0
aF0.02104496955871582
aa(lp3367
S'26:128'
p3368
aI26
aI128
aI0
aF0.02142810821533203
aa(lp3369
S'26:129'
p3370
aI26
aI129
aI0
aF0.02295708656311035
aa(lp3371
S'27:5'
p3372
aI27
aI5
aI0
aI-1
aa(lp3373
S'27:6'
p3374
aI27
aI6
aI0
aI-1
aa(lp3375
S'27:7'
p3376
aI27
aI7
aI0
aI-1
aa(lp3377
S'27:8'
p3378
aI27
aI8
aI0
aI-1
aa(lp3379
S'27:9'
p3380
aI27
aI9
aI0
aI-1
aa(lp3381
S'27:10'
p3382
aI27
aI10
aI0
aI-1
aa(lp3383
S'27:11'
p3384
aI27
aI11
aI0
aI-1
aa(lp3385
S'27:12'
p3386
aI27
aI12
aI0
aI-1
aa(lp3387
S'27:13'
p3388
aI27
aI13
aI0
aI-1
aa(lp3389
S'27:14'
p3390
aI27
aI14
aI0
aI-1
aa(lp3391
S'27:15'
p3392
aI27
aI15
aI0
aI-1
aa(lp3393
S'27:16'
p3394
aI27
aI16
aI0
aI-1
aa(lp3395
S'27:17'
p3396
aI27
aI17
aI0
aI-1
aa(lp3397
S'27:18'
p3398
aI27
aI18
aI0
aI-1
aa(lp3399
S'27:19'
p3400
aI27
aI19
aI0
aI-1
aa(lp3401
S'27:20'
p3402
aI27
aI20
aI0
aI-1
aa(lp3403
S'27:21'
p3404
aI27
aI21
aI0
aF0.008067131042480469
aa(lp3405
S'27:22'
p3406
aI27
aI22
aI0
aF0.010328054428100586
aa(lp3407
S'27:23'
p3408
aI27
aI23
aI0
aI-1
aa(lp3409
S'27:24'
p3410
aI27
aI24
aI0
aF0.013612985610961914
aa(lp3411
S'27:25'
p3412
aI27
aI25
aI0
aF0.012820005416870117
aa(lp3413
S'27:26'
p3414
aI27
aI26
aI0
aF0.010317087173461914
aa(lp3415
S'27:27'
p3416
aI27
aI27
aI0
aF0.010009050369262695
aa(lp3417
S'27:28'
p3418
aI27
aI28
aI0
aF0.012552976608276367
aa(lp3419
S'27:29'
p3420
aI27
aI29
aI0
aF0.01394200325012207
aa(lp3421
S'27:30'
p3422
aI27
aI30
aI0
aF0.011065959930419922
aa(lp3423
S'27:31'
p3424
aI27
aI31
aI0
aF0.010663986206054688
aa(lp3425
S'27:32'
p3426
aI27
aI32
aI0
aF0.012732982635498047
aa(lp3427
S'27:33'
p3428
aI27
aI33
aI0
aF0.013755083084106445
aa(lp3429
S'27:34'
p3430
aI27
aI34
aI0
aF0.020678997039794922
aa(lp3431
S'27:35'
p3432
aI27
aI35
aI0
aF0.011707067489624023
aa(lp3433
S'27:36'
p3434
aI27
aI36
aI0
aF0.013000965118408203
aa(lp3435
S'27:37'
p3436
aI27
aI37
aI0
aF0.021818876266479492
aa(lp3437
S'27:38'
p3438
aI27
aI38
aI0
aF0.012069225311279297
aa(lp3439
S'27:39'
p3440
aI27
aI39
aI0
aF0.01135396957397461
aa(lp3441
S'27:40'
p3442
aI27
aI40
aI0
aF0.013049125671386719
aa(lp3443
S'27:41'
p3444
aI27
aI41
aI0
aF0.01050114631652832
aa(lp3445
S'27:42'
p3446
aI27
aI42
aI0
aF0.012243986129760742
aa(lp3447
S'27:43'
p3448
aI27
aI43
aI0
aF0.013168096542358398
aa(lp3449
S'27:44'
p3450
aI27
aI44
aI0
aF0.01223611831665039
aa(lp3451
S'27:45'
p3452
aI27
aI45
aI0
aF0.012494087219238281
aa(lp3453
S'27:46'
p3454
aI27
aI46
aI0
aF0.013983011245727539
aa(lp3455
S'27:47'
p3456
aI27
aI47
aI0
aF0.012685060501098633
aa(lp3457
S'27:48'
p3458
aI27
aI48
aI0
aF0.013637065887451172
aa(lp3459
S'27:49'
p3460
aI27
aI49
aI0
aF0.012922048568725586
aa(lp3461
S'27:50'
p3462
aI27
aI50
aI0
aF0.013122081756591797
aa(lp3463
S'27:51'
p3464
aI27
aI51
aI0
aF0.012969017028808594
aa(lp3465
S'27:52'
p3466
aI27
aI52
aI0
aF0.013642072677612305
aa(lp3467
S'27:53'
p3468
aI27
aI53
aI0
aF0.011961221694946289
aa(lp3469
S'27:54'
p3470
aI27
aI54
aI0
aF0.014000177383422852
aa(lp3471
S'27:55'
p3472
aI27
aI55
aI0
aF0.013463020324707031
aa(lp3473
S'27:56'
p3474
aI27
aI56
aI0
aF0.015550851821899414
aa(lp3475
S'27:57'
p3476
aI27
aI57
aI0
aF0.013279914855957031
aa(lp3477
S'27:58'
p3478
aI27
aI58
aI0
aF0.012495994567871094
aa(lp3479
S'27:59'
p3480
aI27
aI59
aI0
aF0.01407003402709961
aa(lp3481
S'27:60'
p3482
aI27
aI60
aI0
aF0.014678955078125
aa(lp3483
S'27:61'
p3484
aI27
aI61
aI0
aF0.014978170394897461
aa(lp3485
S'27:62'
p3486
aI27
aI62
aI0
aF0.013443946838378906
aa(lp3487
S'27:63'
p3488
aI27
aI63
aI0
aF0.013410091400146484
aa(lp3489
S'27:64'
p3490
aI27
aI64
aI0
aF0.013633012771606445
aa(lp3491
S'27:65'
p3492
aI27
aI65
aI0
aF0.013900041580200195
aa(lp3493
S'27:66'
p3494
aI27
aI66
aI0
aF0.013926029205322266
aa(lp3495
S'27:67'
p3496
aI27
aI67
aI0
aF0.014345884323120117
aa(lp3497
S'27:68'
p3498
aI27
aI68
aI0
aF0.01605081558227539
aa(lp3499
S'27:69'
p3500
aI27
aI69
aI0
aF0.014245033264160156
aa(lp3501
S'27:70'
p3502
aI27
aI70
aI0
aF0.014712095260620117
aa(lp3503
S'27:71'
p3504
aI27
aI71
aI0
aF0.01483607292175293
aa(lp3505
S'27:72'
p3506
aI27
aI72
aI0
aF0.014501094818115234
aa(lp3507
S'27:73'
p3508
aI27
aI73
aI0
aF0.015209197998046875
aa(lp3509
S'27:74'
p3510
aI27
aI74
aI0
aF0.01494908332824707
aa(lp3511
S'27:75'
p3512
aI27
aI75
aI0
aF0.0152130126953125
aa(lp3513
S'27:76'
p3514
aI27
aI76
aI0
aF0.015051841735839844
aa(lp3515
S'27:77'
p3516
aI27
aI77
aI0
aF0.01589488983154297
aa(lp3517
S'27:78'
p3518
aI27
aI78
aI0
aF0.017538070678710938
aa(lp3519
S'27:79'
p3520
aI27
aI79
aI0
aF0.01620316505432129
aa(lp3521
S'27:80'
p3522
aI27
aI80
aI0
aF0.016022920608520508
aa(lp3523
S'27:81'
p3524
aI27
aI81
aI0
aF0.016544103622436523
aa(lp3525
S'27:82'
p3526
aI27
aI82
aI0
aF0.016374826431274414
aa(lp3527
S'27:83'
p3528
aI27
aI83
aI0
aF0.016405105590820312
aa(lp3529
S'27:84'
p3530
aI27
aI84
aI0
aF0.01658487319946289
aa(lp3531
S'27:85'
p3532
aI27
aI85
aI0
aF0.015642166137695312
aa(lp3533
S'27:86'
p3534
aI27
aI86
aI0
aF0.01633596420288086
aa(lp3535
S'27:87'
p3536
aI27
aI87
aI0
aF0.016319990158081055
aa(lp3537
S'27:88'
p3538
aI27
aI88
aI0
aF0.01907491683959961
aa(lp3539
S'27:89'
p3540
aI27
aI89
aI0
aF0.016675949096679688
aa(lp3541
S'27:90'
p3542
aI27
aI90
aI0
aF0.016946077346801758
aa(lp3543
S'27:91'
p3544
aI27
aI91
aI0
aF0.017271995544433594
aa(lp3545
S'27:92'
p3546
aI27
aI92
aI0
aF0.01922297477722168
aa(lp3547
S'27:93'
p3548
aI27
aI93
aI0
aF0.017804861068725586
aa(lp3549
S'27:94'
p3550
aI27
aI94
aI0
aF0.019437789916992188
aa(lp3551
S'27:95'
p3552
aI27
aI95
aI0
aF0.019748926162719727
aa(lp3553
S'27:96'
p3554
aI27
aI96
aI0
aF0.01893901824951172
aa(lp3555
S'27:97'
p3556
aI27
aI97
aI0
aF0.019603967666625977
aa(lp3557
S'27:98'
p3558
aI27
aI98
aI0
aF0.019189834594726562
aa(lp3559
S'27:99'
p3560
aI27
aI99
aI0
aF0.019665002822875977
aa(lp3561
S'27:100'
p3562
aI27
aI100
aI0
aF0.020294189453125
aa(lp3563
S'27:101'
p3564
aI27
aI101
aI0
aF0.02026200294494629
aa(lp3565
S'27:102'
p3566
aI27
aI102
aI0
aF0.020657062530517578
aa(lp3567
S'27:103'
p3568
aI27
aI103
aI0
aF0.020220041275024414
aa(lp3569
S'27:104'
p3570
aI27
aI104
aI0
aF0.021595001220703125
aa(lp3571
S'27:105'
p3572
aI27
aI105
aI0
aF0.02139592170715332
aa(lp3573
S'27:106'
p3574
aI27
aI106
aI0
aF0.020738840103149414
aa(lp3575
S'27:107'
p3576
aI27
aI107
aI0
aF0.021240949630737305
aa(lp3577
S'27:108'
p3578
aI27
aI108
aI0
aF0.021138906478881836
aa(lp3579
S'27:109'
p3580
aI27
aI109
aI0
aF0.020726919174194336
aa(lp3581
S'27:110'
p3582
aI27
aI110
aI0
aF0.020303010940551758
aa(lp3583
S'27:111'
p3584
aI27
aI111
aI0
aF0.021819114685058594
aa(lp3585
S'27:112'
p3586
aI27
aI112
aI0
aF0.020679950714111328
aa(lp3587
S'27:113'
p3588
aI27
aI113
aI0
aF0.020713090896606445
aa(lp3589
S'27:114'
p3590
aI27
aI114
aI0
aF0.02179718017578125
aa(lp3591
S'27:115'
p3592
aI27
aI115
aI0
aF0.022563934326171875
aa(lp3593
S'27:116'
p3594
aI27
aI116
aI0
aF0.020991086959838867
aa(lp3595
S'27:117'
p3596
aI27
aI117
aI0
aF0.02221202850341797
aa(lp3597
S'27:118'
p3598
aI27
aI118
aI0
aF0.022211790084838867
aa(lp3599
S'27:119'
p3600
aI27
aI119
aI0
aF0.023303985595703125
aa(lp3601
S'27:120'
p3602
aI27
aI120
aI0
aF0.022323131561279297
aa(lp3603
S'27:121'
p3604
aI27
aI121
aI0
aF0.02361893653869629
aa(lp3605
S'27:122'
p3606
aI27
aI122
aI0
aF0.023884057998657227
aa(lp3607
S'27:123'
p3608
aI27
aI123
aI0
aF0.022270917892456055
aa(lp3609
S'27:124'
p3610
aI27
aI124
aI0
aF0.02397298812866211
aa(lp3611
S'27:125'
p3612
aI27
aI125
aI0
aF0.024608850479125977
aa(lp3613
S'27:126'
p3614
aI27
aI126
aI0
aF0.022938013076782227
aa(lp3615
S'27:127'
p3616
aI27
aI127
aI0
aF0.023279905319213867
aa(lp3617
S'27:128'
p3618
aI27
aI128
aI0
aF0.023672103881835938
aa(lp3619
S'27:129'
p3620
aI27
aI129
aI0
aF0.0244901180267334
aa(lp3621
S'27:130'
p3622
aI27
aI130
aI0
aF0.02506399154663086
aa(lp3623
S'27:131'
p3624
aI27
aI131
aI0
aF0.02358078956604004
aa(lp3625
S'27:132'
p3626
aI27
aI132
aI0
aF0.02325606346130371
aa(lp3627
S'27:133'
p3628
aI27
aI133
aI0
aF0.02364802360534668
aa(lp3629
S'27:134'
p3630
aI27
aI134
aI0
aF0.02442002296447754
aa(lp3631
S'28:5'
p3632
aI28
aI5
aI0
aI-1
aa(lp3633
S'28:6'
p3634
aI28
aI6
aI0
aI-1
aa(lp3635
S'28:7'
p3636
aI28
aI7
aI0
aI-1
aa(lp3637
S'28:8'
p3638
aI28
aI8
aI0
aI-1
aa(lp3639
S'28:9'
p3640
aI28
aI9
aI0
aI-1
aa(lp3641
S'28:10'
p3642
aI28
aI10
aI0
aI-1
aa(lp3643
S'28:11'
p3644
aI28
aI11
aI0
aI-1
aa(lp3645
S'28:12'
p3646
aI28
aI12
aI0
aI-1
aa(lp3647
S'28:13'
p3648
aI28
aI13
aI0
aI-1
aa(lp3649
S'28:14'
p3650
aI28
aI14
aI0
aI-1
aa(lp3651
S'28:15'
p3652
aI28
aI15
aI0
aI-1
aa(lp3653
S'28:16'
p3654
aI28
aI16
aI0
aI-1
aa(lp3655
S'28:17'
p3656
aI28
aI17
aI0
aI-1
aa(lp3657
S'28:18'
p3658
aI28
aI18
aI0
aI-1
aa(lp3659
S'28:19'
p3660
aI28
aI19
aI0
aI-1
aa(lp3661
S'28:20'
p3662
aI28
aI20
aI0
aI-1
aa(lp3663
S'28:21'
p3664
aI28
aI21
aI0
aI-1
aa(lp3665
S'28:22'
p3666
aI28
aI22
aI0
aI-1
aa(lp3667
S'28:23'
p3668
aI28
aI23
aI0
aI-1
aa(lp3669
S'28:24'
p3670
aI28
aI24
aI0
aF0.009601116180419922
aa(lp3671
S'28:25'
p3672
aI28
aI25
aI0
aF0.018340110778808594
aa(lp3673
S'28:26'
p3674
aI28
aI26
aI0
aF0.008594036102294922
aa(lp3675
S'28:27'
p3676
aI28
aI27
aI0
aF0.01402592658996582
aa(lp3677
S'28:28'
p3678
aI28
aI28
aI0
aF0.020895957946777344
aa(lp3679
S'28:29'
p3680
aI28
aI29
aI0
aF0.01273202896118164
aa(lp3681
S'28:30'
p3682
aI28
aI30
aI0
aF0.013592958450317383
aa(lp3683
S'28:31'
p3684
aI28
aI31
aI0
aF0.013235092163085938
aa(lp3685
S'28:32'
p3686
aI28
aI32
aI0
aF0.013038158416748047
aa(lp3687
S'28:33'
p3688
aI28
aI33
aI0
aF0.011610031127929688
aa(lp3689
S'28:34'
p3690
aI28
aI34
aI0
aF0.010483980178833008
aa(lp3691
S'28:35'
p3692
aI28
aI35
aI0
aF0.013846874237060547
aa(lp3693
S'28:36'
p3694
aI28
aI36
aI0
aF0.014068126678466797
aa(lp3695
S'28:37'
p3696
aI28
aI37
aI0
aF0.013649940490722656
aa(lp3697
S'28:38'
p3698
aI28
aI38
aI0
aF0.015022039413452148
aa(lp3699
S'28:39'
p3700
aI28
aI39
aI0
aF0.014918088912963867
aa(lp3701
S'28:40'
p3702
aI28
aI40
aI0
aF0.016003131866455078
aa(lp3703
S'28:41'
p3704
aI28
aI41
aI0
aF0.012323141098022461
aa(lp3705
S'28:42'
p3706
aI28
aI42
aI0
aF0.014898061752319336
aa(lp3707
S'28:43'
p3708
aI28
aI43
aI0
aF0.013458013534545898
aa(lp3709
S'28:44'
p3710
aI28
aI44
aI0
aF0.014060020446777344
aa(lp3711
S'28:45'
p3712
aI28
aI45
aI0
aF0.01337885856628418
aa(lp3713
S'28:46'
p3714
aI28
aI46
aI0
aF0.013284921646118164
aa(lp3715
S'28:47'
p3716
aI28
aI47
aI0
aF0.013371944427490234
aa(lp3717
S'28:48'
p3718
aI28
aI48
aI0
aF0.010690927505493164
aa(lp3719
S'28:49'
p3720
aI28
aI49
aI0
aF0.013491153717041016
aa(lp3721
S'28:50'
p3722
aI28
aI50
aI0
aF0.013660907745361328
aa(lp3723
S'28:51'
p3724
aI28
aI51
aI0
aF0.01326608657836914
aa(lp3725
S'28:52'
p3726
aI28
aI52
aI0
aF0.011794090270996094
aa(lp3727
S'28:53'
p3728
aI28
aI53
aI0
aF0.013506174087524414
aa(lp3729
S'28:54'
p3730
aI28
aI54
aI0
aF0.014018058776855469
aa(lp3731
S'28:55'
p3732
aI28
aI55
aI0
aF0.012104034423828125
aa(lp3733
S'28:56'
p3734
aI28
aI56
aI0
aF0.012939929962158203
aa(lp3735
S'28:57'
p3736
aI28
aI57
aI0
aF0.013669967651367188
aa(lp3737
S'28:58'
p3738
aI28
aI58
aI0
aF0.015956878662109375
aa(lp3739
S'28:59'
p3740
aI28
aI59
aI0
aF0.012615203857421875
aa(lp3741
S'28:60'
p3742
aI28
aI60
aI0
aF0.013469934463500977
aa(lp3743
S'28:61'
p3744
aI28
aI61
aI0
aF0.015359878540039062
aa(lp3745
S'28:62'
p3746
aI28
aI62
aI0
aF0.012650012969970703
aa(lp3747
S'28:63'
p3748
aI28
aI63
aI0
aF0.014462947845458984
aa(lp3749
S'28:64'
p3750
aI28
aI64
aI0
aF0.014902114868164062
aa(lp3751
S'28:65'
p3752
aI28
aI65
aI0
aF0.014883995056152344
aa(lp3753
S'28:66'
p3754
aI28
aI66
aI0
aF0.01512908935546875
aa(lp3755
S'28:67'
p3756
aI28
aI67
aI0
aF0.017392873764038086
aa(lp3757
S'28:68'
p3758
aI28
aI68
aI0
aF0.01751995086669922
aa(lp3759
S'28:69'
p3760
aI28
aI69
aI0
aF0.015970945358276367
aa(lp3761
S'28:70'
p3762
aI28
aI70
aI0
aF0.015417098999023438
aa(lp3763
S'28:71'
p3764
aI28
aI71
aI0
aF0.016304969787597656
aa(lp3765
S'28:72'
p3766
aI28
aI72
aI0
aF0.015142202377319336
aa(lp3767
S'28:73'
p3768
aI28
aI73
aI0
aF0.01612377166748047
aa(lp3769
S'28:74'
p3770
aI28
aI74
aI0
aF0.017241954803466797
aa(lp3771
S'28:75'
p3772
aI28
aI75
aI0
aF0.01657891273498535
aa(lp3773
S'28:76'
p3774
aI28
aI76
aI0
aF0.01596808433532715
aa(lp3775
S'28:77'
p3776
aI28
aI77
aI0
aF0.016717195510864258
aa(lp3777
S'28:78'
p3778
aI28
aI78
aI0
aF0.019997119903564453
aa(lp3779
S'28:79'
p3780
aI28
aI79
aI0
aF0.018033981323242188
aa(lp3781
S'28:80'
p3782
aI28
aI80
aI0
aF0.018538951873779297
aa(lp3783
S'28:81'
p3784
aI28
aI81
aI0
aF0.019316911697387695
aa(lp3785
S'28:82'
p3786
aI28
aI82
aI0
aF0.018301963806152344
aa(lp3787
S'28:83'
p3788
aI28
aI83
aI0
aF0.017907142639160156
aa(lp3789
S'28:84'
p3790
aI28
aI84
aI0
aF0.018017053604125977
aa(lp3791
S'28:85'
p3792
aI28
aI85
aI0
aF0.018271207809448242
aa(lp3793
S'28:86'
p3794
aI28
aI86
aI0
aF0.017919063568115234
aa(lp3795
S'28:87'
p3796
aI28
aI87
aI0
aF0.020071029663085938
aa(lp3797
S'28:88'
p3798
aI28
aI88
aI0
aF0.018507003784179688
aa(lp3799
S'28:89'
p3800
aI28
aI89
aI0
aF0.01941204071044922
aa(lp3801
S'28:90'
p3802
aI28
aI90
aI0
aF0.018136978149414062
aa(lp3803
S'28:91'
p3804
aI28
aI91
aI0
aF0.018779993057250977
aa(lp3805
S'28:92'
p3806
aI28
aI92
aI0
aF0.019340038299560547
aa(lp3807
S'28:93'
p3808
aI28
aI93
aI0
aF0.019164085388183594
aa(lp3809
S'28:94'
p3810
aI28
aI94
aI0
aF0.020812034606933594
aa(lp3811
S'28:95'
p3812
aI28
aI95
aI0
aF0.019532203674316406
aa(lp3813
S'28:96'
p3814
aI28
aI96
aI0
aF0.020236968994140625
aa(lp3815
S'28:97'
p3816
aI28
aI97
aI0
aF0.023880958557128906
aa(lp3817
S'28:98'
p3818
aI28
aI98
aI0
aF0.021435976028442383
aa(lp3819
S'28:99'
p3820
aI28
aI99
aI0
aF0.023089885711669922
aa(lp3821
S'28:100'
p3822
aI28
aI100
aI0
aF0.029302120208740234
aa(lp3823
S'28:101'
p3824
aI28
aI101
aI0
aF0.025877952575683594
aa(lp3825
S'28:102'
p3826
aI28
aI102
aI0
aF0.035188913345336914
aa(lp3827
S'28:103'
p3828
aI28
aI103
aI0
aF0.04009103775024414
aa(lp3829
S'28:104'
p3830
aI28
aI104
aI0
aF0.024224042892456055
aa(lp3831
S'28:105'
p3832
aI28
aI105
aI0
aF0.023879051208496094
aa(lp3833
S'28:106'
p3834
aI28
aI106
aI0
aF0.0207979679107666
aa(lp3835
S'28:107'
p3836
aI28
aI107
aI0
aF0.024985074996948242
aa(lp3837
S'28:108'
p3838
aI28
aI108
aI0
aF0.031469106674194336
aa(lp3839
S'28:109'
p3840
aI28
aI109
aI0
aF0.026571035385131836
aa(lp3841
S'28:110'
p3842
aI28
aI110
aI0
aF0.02592301368713379
aa(lp3843
S'28:111'
p3844
aI28
aI111
aI0
aF0.027557849884033203
aa(lp3845
S'28:112'
p3846
aI28
aI112
aI0
aF0.02303290367126465
aa(lp3847
S'28:113'
p3848
aI28
aI113
aI0
aF0.028271913528442383
aa(lp3849
S'28:114'
p3850
aI28
aI114
aI0
aF0.02293682098388672
aa(lp3851
S'28:115'
p3852
aI28
aI115
aI0
aF0.02271103858947754
aa(lp3853
S'28:116'
p3854
aI28
aI116
aI0
aF0.022922039031982422
aa(lp3855
S'28:117'
p3856
aI28
aI117
aI0
aF0.025557994842529297
aa(lp3857
S'28:118'
p3858
aI28
aI118
aI0
aF0.0238189697265625
aa(lp3859
S'28:119'
p3860
aI28
aI119
aI0
aF0.022047996520996094
aa(lp3861
S'28:120'
p3862
aI28
aI120
aI0
aF0.02316880226135254
aa(lp3863
S'28:121'
p3864
aI28
aI121
aI0
aF0.024204015731811523
aa(lp3865
S'28:122'
p3866
aI28
aI122
aI0
aF0.024646997451782227
aa(lp3867
S'28:123'
p3868
aI28
aI123
aI0
aF0.027930021286010742
aa(lp3869
S'28:124'
p3870
aI28
aI124
aI0
aF0.028512954711914062
aa(lp3871
S'28:125'
p3872
aI28
aI125
aI0
aF0.02391195297241211
aa(lp3873
S'28:126'
p3874
aI28
aI126
aI0
aF0.02484297752380371
aa(lp3875
S'28:127'
p3876
aI28
aI127
aI0
aF0.025884151458740234
aa(lp3877
S'28:128'
p3878
aI28
aI128
aI0
aF0.03223085403442383
aa(lp3879
S'28:129'
p3880
aI28
aI129
aI0
aF0.026372909545898438
aa(lp3881
S'28:130'
p3882
aI28
aI130
aI0
aF0.025183916091918945
aa(lp3883
S'28:131'
p3884
aI28
aI131
aI0
aF0.02591395378112793
aa(lp3885
S'28:132'
p3886
aI28
aI132
aI0
aF0.026280879974365234
aa(lp3887
S'28:133'
p3888
aI28
aI133
aI0
aF0.025385141372680664
aa(lp3889
S'28:134'
p3890
aI28
aI134
aI0
aF0.025068998336791992
aa(lp3891
S'28:135'
p3892
aI28
aI135
aI0
aF0.026116132736206055
aa(lp3893
S'28:136'
p3894
aI28
aI136
aI0
aF0.02642512321472168
aa(lp3895
S'28:137'
p3896
aI28
aI137
aI0
aF0.025332927703857422
aa(lp3897
S'28:138'
p3898
aI28
aI138
aI0
aF0.027831077575683594
aa(lp3899
S'28:139'
p3900
aI28
aI139
aI0
aF0.026530027389526367
aa(lp3901
S'key'
p3902
aS'n'
p3903
aS'm'
p3904
aS'misses'
p3905
aS'vTime'
p3906
aa.